(dp0
I0
I4
sI2916355
I384
sI2659670
I384
sI2949128
I384
sI2916368
I384
sI2949141
I384
sI2916381
I384
sI3009200
I1020
sI2949154
I384
sI2916394
I384
sI2949167
I384
sI2949180
I384
sI1966146
I64
sI2916420
I384
sI2949193
I384
sI2293837
I144
sI2659683
I384
sI786526
I24
sI2326623
I144
sI2031718
I64
sI2359409
I144
sI2064504
I64
sI2392195
I144
sI2299245
I144
sI2752659
I384
sI2424981
I144
sI2818205
I384
sI1245347
I4
sI2818218
I384
sI2916524
I384
sI2949297
I384
sI2818231
I384
sI2916537
I384
sI2949310
I384
sI2916550
I384
sI2949323
I384
sI2916563
I384
sI2949336
I384
sI2261220
I144
sI2949349
I384
sI426218
I4
sI2916589
I384
sI2949362
I384
sI2332031
I144
sI2326792
I144
sI2031887
I64
sI819481
I24
sI2359578
I144
sI393263
I4
sI2064673
I64
sI2392364
I144
sI2244658
I144
sI2097459
I64
sI2130245
I64
sI2818387
I384
sI2687321
I384
sI1278302
I4
sI2818400
I384
sI2916706
I384
sI2687334
I384
sI2949479
I384
sI2916719
I384
sI2687347
I384
sI2949492
I384
sI2916732
I384
sI2687360
I384
sI2949505
I384
sI2261389
I144
sI2949518
I384
sI2916758
I384
sI2687386
I384
sI2949531
I384
sI2294175
I144
sI459173
I4
sI2687399
I384
sI2326961
I144
sI2687412
I384
sI2032056
I64
sI2687425
I384
sI2359747
I144
sI2064842
I64
sI852436
I24
sI2392533
I144
sI2097628
I64
sI2425319
I144
sI1147399
I4
sI1147400
I4
sI1147401
I4
sI1147402
I4
sI1147403
I4
sI1147404
I4
sI1147405
I4
sI1147412
I4
sI1147413
I4
sI1147414
I4
sI1147415
I4
sI1147416
I4
sI1147417
I4
sI1147418
I4
sI2949661
I384
sI1147426
I4
sI1147427
I4
sI1147428
I4
sI1147429
I4
sI1147430
I4
sI1147431
I4
sI2949674
I384
sI2982443
I1020
sI2982444
I1020
sI2982445
I1020
sI2982446
I1020
sI1147440
I4
sI1147441
I4
sI1147442
I4
sI1147443
I4
sI1147444
I4
sI2261558
I144
sI2949687
I384
sI2982456
I1020
sI2982457
I1020
sI2982458
I1020
sI2982459
I1020
sI1147454
I4
sI1147455
I4
sI1147456
I4
sI1147457
I4
sI2949700
I384
sI2982470
I1020
sI2982471
I1020
sI2982472
I1020
sI1147468
I4
sI1147469
I4
sI1147470
I4
sI1999439
I64
sI2982484
I1020
sI2982485
I1020
sI1147482
I4
sI1147483
I4
sI492128
I4
sI2982498
I1020
sI1147496
I4
sI2359916
I144
sI2065011
I64
sI2292485
I144
sI2602366
I384
sI2392702
I144
sI2097797
I64
sI885391
I24
sI2425488
I144
sI2130583
I64
sI1868464
I64
sI2687672
I384
sI1147581
I4
sI1147582
I4
sI1147583
I4
sI1147584
I4
sI1147585
I4
sI1147586
I4
sI1147587
I4
sI2851524
I384
sI2687685
I384
sI1147595
I4
sI1147596
I4
sI1147597
I4
sI1147598
I4
sI1147599
I4
sI1147600
I4
sI2687698
I384
sI2949843
I384
sI1147609
I4
sI1147610
I4
sI1147611
I4
sI1147612
I4
sI1147613
I4
sI2687711
I384
sI2949856
I384
sI2982625
I1020
sI2982626
I1020
sI2982627
I1020
sI2982628
I1020
sI1147623
I4
sI2917096
I384
sI1147625
I4
sI1147626
I4
sI2687724
I384
sI2949869
I384
sI2982639
I1020
sI2982640
I1020
sI2294513
I144
sI1147637
I4
sI1147638
I4
sI1147639
I4
sI1999608
I64
sI2687737
I384
sI2982653
I1020
sI2982654
I1020
sI2327299
I144
sI1147652
I4
sI2687750
I384
sI2982667
I1020
sI1147665
I4
sI2687763
I384
sI2360085
I144
sI2392871
I144
sI2097966
I64
sI2425657
I144
sI2130752
I64
sI918346
I24
sI1868633
I64
sI2628561
I384
sI2687854
I384
sI1147764
I4
sI1147765
I4
sI1147766
I4
sI1147767
I4
sI1147768
I4
sI1147769
I4
sI2687867
I384
sI1147778
I4
sI1147779
I4
sI1147780
I4
sI1147781
I4
sI1147782
I4
sI2261896
I144
sI2950025
I384
sI1147792
I4
sI2917265
I384
sI1147794
I4
sI1147795
I4
sI2687893
I384
sI2950038
I384
sI2982808
I1020
sI2982809
I1020
sI2982810
I1020
sI1147806
I4
sI1147807
I4
sI1147808
I4
sI1999777
I64
sI2687906
I384
sI2982822
I1020
sI2982823
I1020
sI2714439
I384
sI2327468
I144
sI1147821
I4
sI2687919
I384
sI2982836
I1020
sI1147834
I4
sI2687932
I384
sI2393040
I144
sI558038
I4
sI2425826
I144
sI3042129
I1020
sI2130921
I64
sI2163707
I64
sI1868802
I64
sI951301
I24
sI3003905
I1020
sI2688036
I384
sI2720809
I384
sI1147947
I4
sI1147948
I4
sI1147949
I4
sI1147950
I4
sI1147951
I4
sI1180720
I4
sI2262065
I144
sI1180722
I4
sI1180723
I4
sI1180724
I4
sI2720822
I384
sI1119753
I4
sI1147961
I4
sI1147962
I4
sI1147963
I4
sI1147964
I4
sI1180733
I4
sI2688062
I384
sI1180735
I4
sI1180736
I4
sI1180737
I4
sI2294851
I144
sI1147975
I4
sI1147976
I4
sI1147977
I4
sI1999946
I64
sI1180747
I4
sI1180748
I4
sI1180749
I4
sI1180750
I4
sI2982991
I1020
sI2982992
I1020
sI3015763
I1020
sI3015764
I1020
sI1147989
I4
sI1147990
I4
sI2688088
I384
sI1180761
I4
sI1180762
I4
sI1180763
I4
sI2032732
I64
sI2983005
I1020
sI3015777
I1020
sI3015778
I1020
sI1148003
I4
sI2688101
I384
sI1180775
I4
sI1180776
I4
sI2720874
I384
sI3015791
I1020
sI1180789
I4
sI2720887
I384
sI2393209
I144
sI1119766
I4
sI2425995
I144
sI590993
I4
sI2163876
I64
sI1868971
I64
sI1901757
I64
sI984256
I24
sI1121246
I4
sI2262234
I144
sI2720991
I384
sI1148130
I4
sI1148131
I4
sI1148132
I4
sI1148133
I4
sI1180902
I4
sI1180903
I4
sI1180904
I4
sI1180905
I4
sI1180906
I4
sI2295020
I144
sI1148144
I4
sI1148145
I4
sI1148146
I4
sI2688244
I384
sI1180917
I4
sI1180918
I4
sI1180919
I4
sI2884856
I384
sI2721017
I384
sI1148158
I4
sI1148159
I4
sI2688257
I384
sI1180930
I4
sI1180931
I4
sI1180932
I4
sI2884869
I384
sI2983174
I1020
sI3015946
I1020
sI3015947
I1020
sI1148172
I4
sI2688270
I384
sI1180944
I4
sI1180945
I4
sI2884882
I384
sI2721043
I384
sI3015960
I1020
sI1180958
I4
sI2884895
I384
sI2721056
I384
sI2725424
I384
sI2884908
I384
sI2426164
I144
sI2884921
I384
sI2884934
I384
sI623948
I4
sI2884947
I384
sI1869140
I64
sI1901926
I64
sI2884973
I384
sI2884986
I384
sI1017211
I24
sI2262403
I144
sI2688400
I384
sI2721173
I384
sI1148313
I4
sI1148314
I4
sI1148315
I4
sI2000284
I64
sI2688413
I384
sI1181086
I4
sI1181087
I4
sI1181088
I4
sI2721186
I384
sI1148327
I4
sI1148328
I4
sI2688426
I384
sI1181099
I4
sI1181100
I4
sI1181101
I4
sI2885038
I384
sI2721199
I384
sI1148341
I4
sI2688439
I384
sI2360761
I144
sI1181114
I4
sI2885051
I384
sI2721212
I384
sI3016129
I1020
sI1181127
I4
sI2885064
I384
sI2721225
I384
sI2393547
I144
sI2885077
I384
sI2426333
I144
sI2885090
I384
sI2885103
I384
sI2206633
I64
sI1130751
I4
sI2885116
I384
sI1869309
I64
sI656903
I4
sI1902095
I64
sI2885142
I384
sI2885155
I384
sI2262572
I144
sI2623036
I384
sI2295358
I144
sI2000453
I64
sI2688582
I384
sI2721355
I384
sI1148496
I4
sI1148497
I4
sI2688595
I384
sI1181268
I4
sI1181269
I4
sI1181270
I4
sI1214040
I4
sI1214041
I4
sI1214042
I4
sI1214043
I4
sI1148510
I4
sI2688608
I384
sI1181282
I4
sI1181283
I4
sI2885220
I384
sI2721381
I384
sI1214054
I4
sI1214055
I4
sI1214056
I4
sI2066025
I64
sI2628587
I384
sI1181296
I4
sI2885233
I384
sI2721394
I384
sI1214068
I4
sI1214069
I4
sI3049084
I1020
sI2885246
I384
sI1214082
I4
sI2885259
I384
sI2885272
I384
sI2885285
I384
sI1869478
I64
sI1902264
I64
sI2885311
I384
sI689858
I4
sI1935050
I64
sI2885324
I384
sI2262741
I144
sI2295527
I144
sI2000622
I64
sI1083121
I24
sI2328313
I144
sI2688764
I384
sI2033408
I64
sI2721537
I384
sI1148679
I4
sI2688777
I384
sI1181451
I4
sI1181452
I4
sI2721550
I384
sI1214223
I4
sI1214224
I4
sI1214225
I4
sI2066194
I64
sI1181465
I4
sI2885402
I384
sI2721563
I384
sI1214237
I4
sI1214238
I4
sI2918175
I384
sI2885415
I384
sI1214251
I4
sI2918188
I384
sI2426671
I144
sI2885428
I384
sI2918201
I384
sI2885441
I384
sI2918214
I384
sI2885454
I384
sI2918227
I384
sI2872974
I384
sI2918240
I384
sI1902433
I64
sI2885480
I384
sI2918253
I384
sI1935219
I64
sI2885493
I384
sI722813
I4
sI2262910
I144
sI2918279
I384
sI2295696
I144
sI2000791
I64
sI2328482
I144
sI2033577
I64
sI2688946
I384
sI2361268
I144
sI2721719
I384
sI2787265
I384
sI1181634
I4
sI2721732
I384
sI1214406
I4
sI1214407
I4
sI2787278
I384
sI2885584
I384
sI1214420
I4
sI2918357
I384
sI2426840
I144
sI2787291
I384
sI2885597
I384
sI2918370
I384
sI1861535
I64
sI2787304
I384
sI2885610
I384
sI2918383
I384
sI2885623
I384
sI2918396
I384
sI2918409
I384
sI3009538
I1020
sI2885649
I384
sI2230293
I144
sI2918422
I384
sI1935388
I64
sI2885662
I384
sI3042311
I1020
sI2918448
I384
sI755768
I24
sI2295865
I144
sI2000960
I64
sI2328651
I144
sI2033746
I64
sI2361437
I144
sI2066532
I64
sI2721901
I384
sI2099318
I64
sI2787447
I384
sI3042324
I1020
sI2299583
I144
sI2656381
I384
sI1247361
I4
sI1247362
I4
sI2787460
I384
sI2885766
I384
sI2656394
I384
sI2918539
I384
sI1247375
I4
sI2787473
I384
sI2885779
I384
sI1542294
I1020
sI2656407
I384
sI2918552
I384
sI2885792
I384
sI2656420
I384
sI2918565
I384
sI2656433
I384
sI2918578
I384
sI2885818
I384
sI2230462
I144
sI2918591
I384
sI395460
I4
sI2885831
I384
sI2656459
I384
sI2263248
I144
sI1968343
I64
sI2656472
I384
sI2918617
I384
sI2296034
I144
sI2656485
I384
sI2001129
I64
sI2656498
I384
sI788723
I24
sI2328820
I144
sI2033915
I64
sI2361606
I144
sI2066701
I64
sI2394392
I144
sI2427178
I144
sI1116459
I4
sI1116460
I4
sI1116461
I4
sI1116462
I4
sI1116463
I4
sI1116464
I4
sI1116465
I4
sI1116471
I4
sI1116472
I4
sI1116473
I4
sI1116474
I4
sI1116475
I4
sI1116476
I4
sI1116477
I4
sI1116478
I4
sI2918721
I384
sI1116485
I4
sI2951494
I384
sI1116487
I4
sI1116488
I4
sI1116489
I4
sI1116490
I4
sI1116491
I4
sI2918734
I384
sI2687373
I384
sI1116499
I4
sI1116500
I4
sI1116501
I4
sI1116502
I4
sI1116503
I4
sI1116504
I4
sI2918747
I384
sI2951520
I384
sI1116513
I4
sI1116514
I4
sI1116515
I4
sI1116516
I4
sI1116517
I4
sI2230631
I144
sI2918760
I384
sI2951533
I384
sI1116527
I4
sI1116528
I4
sI1116529
I4
sI1116530
I4
sI2951546
I384
sI1116541
I4
sI1116542
I4
sI428415
I4
sI2918786
I384
sI2951559
I384
sI1116555
I4
sI1116556
I4
sI2001298
I64
sI1116569
I4
sI2328989
I144
sI2034084
I64
sI821678
I24
sI2361775
I144
sI2066870
I64
sI2394561
I144
sI2099656
I64
sI2427347
I144
sI2656732
I384
sI1116640
I4
sI1116641
I4
sI1116642
I4
sI1116643
I4
sI1116644
I4
sI1116645
I4
sI1116646
I4
sI1116647
I4
sI2820584
I384
sI2656745
I384
sI2206802
I64
sI1116654
I4
sI1116655
I4
sI1116656
I4
sI1116657
I4
sI1116658
I4
sI1116659
I4
sI1116660
I4
sI2820597
I384
sI2656758
I384
sI2918903
I384
sI1116668
I4
sI1116669
I4
sI1116670
I4
sI1116671
I4
sI1116672
I4
sI1116673
I4
sI2656771
I384
sI2918916
I384
sI2951689
I384
sI1116682
I4
sI1116683
I4
sI1116684
I4
sI1116685
I4
sI1116686
I4
sI2230800
I144
sI2918929
I384
sI2951702
I384
sI1116696
I4
sI1116697
I4
sI1116698
I4
sI1116699
I4
sI2656797
I384
sI2263586
I144
sI2951715
I384
sI1116710
I4
sI1116711
I4
sI1116712
I4
sI2656810
I384
sI2918955
I384
sI2951728
I384
sI1116724
I4
sI1116725
I4
sI2656823
I384
sI461370
I4
sI1116738
I4
sI2656836
I384
sI2329158
I144
sI2034253
I64
sI2361944
I144
sI2067039
I64
sI854633
I24
sI2394730
I144
sI2099825
I64
sI2656914
I384
sI1116823
I4
sI1116824
I4
sI1116825
I4
sI1116826
I4
sI1116827
I4
sI1116828
I4
sI1116829
I4
sI2820766
I384
sI2656927
I384
sI1116837
I4
sI1116838
I4
sI1116839
I4
sI1116840
I4
sI1116841
I4
sI1116842
I4
sI2656940
I384
sI2919085
I384
sI2951858
I384
sI1116851
I4
sI1116852
I4
sI1116853
I4
sI1116854
I4
sI1116855
I4
sI2656953
I384
sI2919098
I384
sI2951871
I384
sI1116865
I4
sI1116866
I4
sI1116867
I4
sI1116868
I4
sI2656966
I384
sI2263755
I144
sI2951884
I384
sI1116879
I4
sI1116880
I4
sI1116881
I4
sI2656979
I384
sI2919124
I384
sI2951897
I384
sI1116893
I4
sI1116894
I4
sI2656992
I384
sI1116907
I4
sI2657005
I384
sI2742103
I384
sI2362113
I144
sI2067208
I64
sI2394899
I144
sI2099994
I64
sI2742064
I384
sI887588
I24
sI2132780
I64
sI2657096
I384
sI2689869
I384
sI1117006
I4
sI1117007
I4
sI1117008
I4
sI1117009
I4
sI1117010
I4
sI1149779
I4
sI1149780
I4
sI2657109
I384
sI1149782
I4
sI1149783
I4
sI1149784
I4
sI2689882
I384
sI1117020
I4
sI1117021
I4
sI1117022
I4
sI1117023
I4
sI1149792
I4
sI1149793
I4
sI2657122
I384
sI1149795
I4
sI1149796
I4
sI1149797
I4
sI2689895
I384
sI2952040
I384
sI1117034
I4
sI1117035
I4
sI1117036
I4
sI1117037
I4
sI1149806
I4
sI1149807
I4
sI1149808
I4
sI1149809
I4
sI1149810
I4
sI2263924
I144
sI2952053
I384
sI2984822
I1020
sI2984823
I1020
sI2984824
I1020
sI1117049
I4
sI1117050
I4
sI1149820
I4
sI1149821
I4
sI1149822
I4
sI1149823
I4
sI2689921
I384
sI2952066
I384
sI2834923
I384
sI2984836
I1020
sI2984837
I1020
sI2984838
I1020
sI1117063
I4
sI2657161
I384
sI1149834
I4
sI1149835
I4
sI1149836
I4
sI2001805
I64
sI2689934
I384
sI2984850
I1020
sI2984851
I1020
sI1117076
I4
sI2657174
I384
sI1149848
I4
sI1149849
I4
sI2689947
I384
sI2984864
I1020
sI1149862
I4
sI2689960
I384
sI2362282
I144
sI527280
I4
sI2747550
I384
sI3004233
I1020
sI2395068
I144
sI2100163
I64
sI2834936
I384
sI2132949
I64
sI920543
I24
sI1870830
I64
sI2657278
I384
sI2690051
I384
sI1117189
I4
sI1117190
I4
sI1117191
I4
sI1117192
I4
sI1117193
I4
sI1149962
I4
sI2231307
I144
sI1149964
I4
sI1149965
I4
sI1149966
I4
sI2690064
I384
sI1117203
I4
sI2886676
I384
sI1117205
I4
sI1117206
I4
sI1149975
I4
sI1149976
I4
sI1149977
I4
sI1149978
I4
sI1149979
I4
sI2264093
I144
sI2952222
I384
sI1117217
I4
sI1117218
I4
sI1117219
I4
sI2657317
I384
sI1149990
I4
sI1149991
I4
sI1149992
I4
sI2690090
I384
sI2952235
I384
sI2985005
I1020
sI2985006
I1020
sI2296879
I144
sI1117232
I4
sI2657330
I384
sI1150003
I4
sI1150004
I4
sI1150005
I4
sI2001974
I64
sI2690103
I384
sI2985019
I1020
sI2985020
I1020
sI1117245
I4
sI2657343
I384
sI1150017
I4
sI1150018
I4
sI2690116
I384
sI2985033
I1020
sI1150031
I4
sI2690129
I384
sI2742116
I384
sI2395237
I144
sI560235
I4
sI2133118
I64
sI2916888
I384
sI1870999
I64
sI953498
I24
sI2742129
I384
sI2657460
I384
sI2690233
I384
sI1117372
I4
sI1117373
I4
sI1117374
I4
sI1117375
I4
sI1150144
I4
sI1150145
I4
sI1150146
I4
sI1150147
I4
sI1150148
I4
sI2264262
I144
sI1117386
I4
sI1117387
I4
sI1117388
I4
sI2657486
I384
sI1150159
I4
sI1150160
I4
sI1150161
I4
sI2690259
I384
sI2952404
I384
sI1117400
I4
sI1117401
I4
sI2657499
I384
sI1150172
I4
sI1150173
I4
sI1150174
I4
sI2916901
I384
sI2690272
I384
sI2985188
I1020
sI2985189
I1020
sI1117414
I4
sI2657512
I384
sI2329834
I144
sI1150187
I4
sI2690285
I384
sI2985202
I1020
sI2742142
I384
sI199927
I4
sI1150200
I4
sI2690298
I384
sI2362620
I144
sI2982442
I1020
sI2395406
I144
sI593190
I4
sI1871168
I64
sI2742155
I384
sI2365324
I144
sI986453
I24
sI2231645
I144
sI2657642
I384
sI2264431
I144
sI1117555
I4
sI1117556
I4
sI1117557
I4
sI2657655
I384
sI1150328
I4
sI1150329
I4
sI1150330
I4
sI2916927
I384
sI2690428
I384
sI1183101
I4
sI1183102
I4
sI1183103
I4
sI1117569
I4
sI1117570
I4
sI2657668
I384
sI1150341
I4
sI1150342
I4
sI1150343
I4
sI2690441
I384
sI1183114
I4
sI1183115
I4
sI1183116
I4
sI1117583
I4
sI2657681
I384
sI1150355
I4
sI1150356
I4
sI2690454
I384
sI1183127
I4
sI1183128
I4
sI1183129
I4
sI2035098
I64
sI2985371
I1020
sI3018143
I1020
sI3018144
I1020
sI1150369
I4
sI2690467
I384
sI1183141
I4
sI1183142
I4
sI3018157
I1020
sI1183155
I4
sI2331862
I144
sI626145
I4
sI2632955
I384
sI1871337
I64
sI1904123
I64
sI2231814
I144
sI2264600
I144
sI2657824
I384
sI2690597
I384
sI1117738
I4
sI1117739
I4
sI2657837
I384
sI1150510
I4
sI1150511
I4
sI1150512
I4
sI2002481
I64
sI2690610
I384
sI1183283
I4
sI1183284
I4
sI1183285
I4
sI1117752
I4
sI2657850
I384
sI2330172
I144
sI1150525
I4
sI2690623
I384
sI1183296
I4
sI1183297
I4
sI1183298
I4
sI2887235
I384
sI1150538
I4
sI2690636
I384
sI2362958
I144
sI1183311
I4
sI2887248
I384
sI3018326
I1020
sI1183324
I4
sI2887261
I384
sI2395744
I144
sI2887274
I384
sI2887287
I384
sI2887300
I384
sI2887313
I384
sI1871506
I64
sI659100
I4
sI1904292
I64
sI2887339
I384
sI2231983
I144
sI2887352
I384
sI2264769
I144
sI1052363
I24
sI2297555
I144
sI2658006
I384
sI2002650
I64
sI2690779
I384
sI1117921
I4
sI2658019
I384
sI2756325
I384
sI1150694
I4
sI2690792
I384
sI1183465
I4
sI1183466
I4
sI1183467
I4
sI2611154
I384
sI2756338
I384
sI1150707
I4
sI2690805
I384
sI1183479
I4
sI1183480
I4
sI2887417
I384
sI2756351
I384
sI1183493
I4
sI2887430
I384
sI2395913
I144
sI2756364
I384
sI2887443
I384
sI2742233
I384
sI2756377
I384
sI2887456
I384
sI2887469
I384
sI2887482
I384
sI1871675
I64
sI2199366
I64
sI1904461
I64
sI2887508
I384
sI692055
I4
sI2887521
I384
sI2264938
I144
sI2835092
I384
sI2334059
I144
sI2297724
I144
sI2002819
I64
sI1085318
I24
sI2658188
I384
sI2330510
I144
sI2690961
I384
sI2035605
I64
sI2756507
I384
sI1150876
I4
sI2690974
I384
sI1183648
I4
sI1183649
I4
sI1216420
I4
sI1216421
I4
sI1216422
I4
sI2068391
I64
sI2756520
I384
sI1183662
I4
sI2887599
I384
sI1216434
I4
sI1216435
I4
sI2756533
I384
sI2887612
I384
sI1216448
I4
sI2756546
I384
sI2835105
I384
sI2887625
I384
sI2887638
I384
sI2887651
I384
sI2199535
I64
sI1904630
I64
sI2747732
I384
sI2887677
I384
sI2232321
I144
sI1937416
I64
sI2887690
I384
sI725010
I4
sI2265107
I144
sI2297893
I144
sI2002988
I64
sI2330679
I144
sI2035774
I64
sI2691143
I384
sI2363465
I144
sI2742285
I384
sI2756689
I384
sI1183831
I4
sI1216603
I4
sI1216604
I4
sI2756702
I384
sI2944357
I384
sI2887781
I384
sI1216617
I4
sI2920554
I384
sI2756715
I384
sI2887794
I384
sI2920567
I384
sI2887807
I384
sI2920580
I384
sI2887820
I384
sI2920593
I384
sI2199704
I64
sI2742298
I384
sI2920606
I384
sI1240432
I4
sI2887846
I384
sI2920619
I384
sI1937585
I64
sI2887859
I384
sI2920645
I384
sI757965
I24
sI2298062
I144
sI2003157
I64
sI2330848
I144
sI2035943
I64
sI3004455
I1020
sI2363634
I144
sI2068729
I64
sI2396420
I144
sI2756871
I384
sI2789644
I384
sI1216786
I4
sI2756884
I384
sI2789657
I384
sI2887963
I384
sI2920736
I384
sI2789670
I384
sI2887976
I384
sI2920749
I384
sI2887989
I384
sI2742324
I384
sI2920762
I384
sI2261727
I144
sI2365493
I144
sI2199873
I64
sI2920775
I384
sI2888015
I384
sI2232659
I144
sI2920788
I384
sI397657
I4
sI2888028
I384
sI2265445
I144
sI2920814
I384
sI1147624
I4
sI2298231
I144
sI2003326
I64
sI790920
I24
sI2331017
I144
sI2036112
I64
sI2363803
I144
sI2068898
I64
sI2982641
I1020
sI2757053
I384
sI2789826
I384
sI1249741
I4
sI2789839
I384
sI2888145
I384
sI2920918
I384
sI2633124
I384
sI2888158
I384
sI2920931
I384
sI2200042
I64
sI2920944
I384
sI2888184
I384
sI2232828
I144
sI2920957
I384
sI2888197
I384
sI2265614
I144
sI1147651
I4
sI430612
I4
sI2920983
I384
sI2003495
I64
sI2331186
I144
sI2036281
I64
sI823875
I24
sI2363972
I144
sI2239926
I144
sI2069067
I64
sI2396758
I144
sI2101853
I64
sI1128385
I4
sI2658929
I384
sI1118837
I4
sI1118838
I4
sI1118839
I4
sI1118840
I4
sI1118841
I4
sI1118842
I4
sI1118843
I4
sI1118844
I4
sI2658942
I384
sI1118851
I4
sI1118852
I4
sI1118853
I4
sI1118854
I4
sI2888327
I384
sI1118856
I4
sI1118857
I4
sI2658955
I384
sI2921100
I384
sI1118865
I4
sI1118866
I4
sI2200211
I64
sI1118868
I4
sI1118869
I4
sI1118870
I4
sI2658968
I384
sI2921113
I384
sI2953886
I384
sI1118879
I4
sI1118880
I4
sI2888353
I384
sI1118882
I4
sI1118883
I4
sI2658981
I384
sI2921126
I384
sI2953899
I384
sI1118893
I4
sI2888366
I384
sI1118895
I4
sI1118896
I4
sI2658994
I384
sI2953912
I384
sI1118907
I4
sI1118908
I4
sI1118909
I4
sI1970878
I64
sI2659007
I384
sI2921152
I384
sI2953925
I384
sI2298569
I144
sI1118922
I4
sI2659020
I384
sI1118935
I4
sI2659033
I384
sI2331355
I144
sI2036450
I64
sI2611323
I384
sI2364141
I144
sI2069236
I64
sI856830
I24
sI2396927
I144
sI2102022
I64
sI2659111
I384
sI1119020
I4
sI1119021
I4
sI1119022
I4
sI1119023
I4
sI1119024
I4
sI1119025
I4
sI1119026
I4
sI2822963
I384
sI2659124
I384
sI1119034
I4
sI1119035
I4
sI2200380
I64
sI1119037
I4
sI1119038
I4
sI1119039
I4
sI2659137
I384
sI2921282
I384
sI2954055
I384
sI1119048
I4
sI1119049
I4
sI1119050
I4
sI1119051
I4
sI1119052
I4
sI2233166
I144
sI2921295
I384
sI2954068
I384
sI1119062
I4
sI2888535
I384
sI1119064
I4
sI1119065
I4
sI2659163
I384
sI2265952
I144
sI2954081
I384
sI1119076
I4
sI1119077
I4
sI1119078
I4
sI1971047
I64
sI2659176
I384
sI2921321
I384
sI2954094
I384
sI1119090
I4
sI1119091
I4
sI2659189
I384
sI1119104
I4
sI2659202
I384
sI496522
I4
sI2364310
I144
sI2069405
I64
sI2397096
I144
sI2102191
I64
sI889785
I24
sI2835274
I384
sI2659293
I384
sI1119203
I4
sI1119204
I4
sI1119205
I4
sI1119206
I4
sI1119207
I4
sI1119208
I4
sI2659306
I384
sI1119217
I4
sI1119218
I4
sI1119219
I4
sI1119220
I4
sI1119221
I4
sI2233335
I144
sI2921464
I384
sI2954237
I384
sI1119231
I4
sI1119232
I4
sI1119233
I4
sI1119234
I4
sI2659332
I384
sI2266121
I144
sI2954250
I384
sI1119245
I4
sI1119246
I4
sI1119247
I4
sI1971216
I64
sI2659345
I384
sI2921490
I384
sI2954263
I384
sI2298907
I144
sI1119260
I4
sI2659358
I384
sI1119273
I4
sI2659371
I384
sI2331693
I144
sI2364479
I144
sI2742454
I384
sI2397265
I144
sI2102360
I64
sI2780687
I384
sI922740
I24
sI2200718
I64
sI2659475
I384
sI1240601
I4
sI1119386
I4
sI1119387
I4
sI1119388
I4
sI1119389
I4
sI1119390
I4
sI1152159
I4
sI2659488
I384
sI1152161
I4
sI1152162
I4
sI1152163
I4
sI1119400
I4
sI2888873
I384
sI1119402
I4
sI1119403
I4
sI1152172
I4
sI2659501
I384
sI1152174
I4
sI1152175
I4
sI1152176
I4
sI2266290
I144
sI2954419
I384
sI1119414
I4
sI1119415
I4
sI1119416
I4
sI2659514
I384
sI1152187
I4
sI1152188
I4
sI1152189
I4
sI2954432
I384
sI2987202
I1020
sI2987203
I1020
sI1119428
I4
sI1119429
I4
sI2659527
I384
sI1152200
I4
sI1152201
I4
sI1152202
I4
sI2004171
I64
sI2987216
I1020
sI2987217
I1020
sI1119442
I4
sI2659540
I384
sI1152214
I4
sI1152215
I4
sI2987230
I1020
sI2742480
I384
sI1152228
I4
sI2397434
I144
sI562432
I4
sI2818569
I384
sI1873196
I64
sI2742493
I384
sI2687880
I384
sI2200887
I64
sI2659657
I384
sI1119569
I4
sI1119570
I4
sI1119571
I4
sI1119572
I4
sI1152341
I4
sI1152342
I4
sI1152343
I4
sI1152344
I4
sI1152345
I4
sI2266459
I144
sI1119583
I4
sI1119584
I4
sI1119585
I4
sI1971554
I64
sI1152355
I4
sI1152356
I4
sI1152357
I4
sI1152358
I4
sI2856295
I384
sI2954601
I384
sI1119597
I4
sI1119598
I4
sI2659696
I384
sI1152369
I4
sI1152370
I4
sI1152371
I4
sI2004340
I64
sI2987385
I1020
sI2987386
I1020
sI1119611
I4
sI2659709
I384
sI1152383
I4
sI1152384
I4
sI2856321
I384
sI2987399
I1020
sI1152397
I4
sI2856334
I384
sI2364817
I144
sI2856347
I384
sI2294682
I144
sI2398448
I144
sI2397603
I144
sI2856360
I384
sI2856373
I384
sI595387
I4
sI2168270
I64
sI2856399
I384
sI1873365
I64
sI2856412
I384
sI2201056
I64
sI2856425
I384
sI2233842
I144
sI2659839
I384
sI2266628
I144
sI1119752
I4
sI2725385
I384
sI1119754
I4
sI1971723
I64
sI1152524
I4
sI1152525
I4
sI1152526
I4
sI1152527
I4
sI2299414
I144
sI1119767
I4
sI2659865
I384
sI1152538
I4
sI1152539
I4
sI1152540
I4
sI2856477
I384
sI2725411
I384
sI1119780
I4
sI2659878
I384
sI2332200
I144
sI1152553
I4
sI2856490
I384
sI2987568
I1020
sI1152566
I4
sI2856503
I384
sI2364986
I144
sI2240095
I144
sI2725437
I384
sI2856516
I384
sI2725450
I384
sI2856529
I384
sI2856542
I384
sI1125991
I4
sI1125992
I4
sI628342
I4
sI2856568
I384
sI1873534
I64
sI2856581
I384
sI2856594
I384
sI1271359
I4
sI2234011
I144
sI1021605
I24
sI2266797
I144
sI1971892
I64
sI2660021
I384
sI1119935
I4
sI1119936
I4
sI2660034
I384
sI1152707
I4
sI1152708
I4
sI1152709
I4
sI2004678
I64
sI1185479
I4
sI1185480
I4
sI1185481
I4
sI1185482
I4
sI2725580
I384
sI1119949
I4
sI2660047
I384
sI1152721
I4
sI1152722
I4
sI2856659
I384
sI1185493
I4
sI1185494
I4
sI1185495
I4
sI2037464
I64
sI2725593
I384
sI1152735
I4
sI2856672
I384
sI2365155
I144
sI1185508
I4
sI2725606
I384
sI3020523
I1020
sI2856685
I384
sI1185521
I4
sI2725619
I384
sI2397941
I144
sI2856698
I384
sI2856711
I384
sI1126019
I4
sI2856737
I384
sI1873703
I64
sI2856750
I384
sI661297
I4
sI1906489
I64
sI2856763
I384
sI2234180
I144
sI2266966
I144
sI1972061
I64
sI1054560
I24
sI2299752
I144
sI2660203
I384
sI2004847
I64
sI2725749
I384
sI1120118
I4
sI2660216
I384
sI2332538
I144
sI1152891
I4
sI1185662
I4
sI1185663
I4
sI1185664
I4
sI2725762
I384
sI1152904
I4
sI2856841
I384
sI1185676
I4
sI1185677
I4
sI2889614
I384
sI2725775
I384
sI2856854
I384
sI1185690
I4
sI2889627
I384
sI2725788
I384
sI2398110
I144
sI2856867
I384
sI2889640
I384
sI2856880
I384
sI2889653
I384
sI2889666
I384
sI2856906
I384
sI2889679
I384
sI1873872
I64
sI2856919
I384
sI1906658
I64
sI2856932
I384
sI2889705
I384
sI694252
I4
sI2889718
I384
sI2267135
I144
sI1972230
I64
sI2299921
I144
sI2005016
I64
sI1087515
I24
sI3130373
I1020
sI2660385
I384
sI2332707
I144
sI2037802
I64
sI2725931
I384
sI2758704
I384
sI1153073
I4
sI1185845
I4
sI1185846
I4
sI2725944
I384
sI2758717
I384
sI2857023
I384
sI1185859
I4
sI2889796
I384
sI2725957
I384
sI2398279
I144
sI2758730
I384
sI2857036
I384
sI2889809
I384
sI2758743
I384
sI2857049
I384
sI2889822
I384
sI2889835
I384
sI2857075
I384
sI2889848
I384
sI2857088
I384
sI2201732
I64
sI2742636
I384
sI1906827
I64
sI2857101
I384
sI2889874
I384
sI2234518
I144
sI2889887
I384
sI727207
I4
sI2267304
I144
sI1972399
I64
sI2300090
I144
sI2333045
I144
sI2005185
I64
sI2332876
I144
sI2037971
I64
sI2742649
I384
sI2726113
I384
sI2758886
I384
sI1186028
I4
sI2726126
I384
sI1218800
I4
sI1218801
I4
sI2758899
I384
sI2857205
I384
sI1273556
I4
sI2889978
I384
sI1218814
I4
sI2758912
I384
sI2857218
I384
sI1513733
I1020
sI2889991
I384
sI2890004
I384
sI1180719
I4
sI2857244
I384
sI2890017
I384
sI2742662
I384
sI1180721
I4
sI2857257
I384
sI2201901
I64
sI2857270
I384
sI2890043
I384
sI2234687
I144
sI3037579
I1020
sI1939782
I64
sI2890056
I384
sI1972568
I64
sI760162
I24
sI2300259
I144
sI2005354
I64
sI1180734
I4
sI2950207
I384
sI2038140
I64
sI2365831
I144
sI2070926
I64
sI2775448
I384
sI2720835
I384
sI2627989
I384
sI2726295
I384
sI2398617
I144
sI2759068
I384
sI2628002
I384
sI1218983
I4
sI2759081
I384
sI2857387
I384
sI2628015
I384
sI2890160
I384
sI2922933
I384
sI2628028
I384
sI2890173
I384
sI2922946
I384
sI2688075
I384
sI2857413
I384
sI2628041
I384
sI2890186
I384
sI2922959
I384
sI2857426
I384
sI2202070
I64
sI2922972
I384
sI2857439
I384
sI2720848
I384
sI2628067
I384
sI2890212
I384
sI2922985
I384
sI399854
I4
sI2628080
I384
sI2890225
I384
sI2267642
I144
sI2628093
I384
sI3015765
I1020
sI1972737
I64
sI2923011
I384
sI2628106
I384
sI2300428
I144
sI2005523
I64
sI793117
I24
sI2333214
I144
sI388869
I4
sI2038309
I64
sI2720861
I384
sI2366000
I144
sI2240264
I144
sI2071095
I64
sI2398786
I144
sI2628171
I384
sI2759250
I384
sI2792023
I384
sI2628184
I384
sI1126160
I4
sI2792036
I384
sI2628197
I384
sI2890342
I384
sI2360423
I144
sI2857582
I384
sI2628210
I384
sI2890355
I384
sI2923128
I384
sI2857595
I384
sI2628223
I384
sI2923141
I384
sI2857608
I384
sI2628236
I384
sI2890381
I384
sI2235025
I144
sI2923154
I384
sI2628249
I384
sI2890394
I384
sI2267811
I144
sI2628262
I384
sI2923180
I384
sI2628275
I384
sI2005692
I64
sI1978145
I64
sI2038478
I64
sI826072
I24
sI2366169
I144
sI2071264
I64
sI2628353
I384
sI2628054
I384
sI1126188
I4
sI2792205
I384
sI2628366
I384
sI2628379
I384
sI2890524
I384
sI2923297
I384
sI2628392
I384
sI2923310
I384
sI2628405
I384
sI2890550
I384
sI2235194
I144
sI2923323
I384
sI2628418
I384
sI2890563
I384
sI2267980
I144
sI2628431
I384
sI2923349
I384
sI2628444
I384
sI2300766
I144
sI2657135
I384
sI465764
I4
sI2333552
I144
sI2038647
I64
sI2366338
I144
sI2071433
I64
sI859027
I24
sI2628535
I384
sI1121217
I4
sI1121218
I4
sI1121219
I4
sI1121220
I4
sI1121221
I4
sI1121222
I4
sI1121223
I4
sI2857933
I384
sI1121231
I4
sI1121232
I4
sI2202577
I64
sI1121234
I4
sI1121235
I4
sI1121236
I4
sI2923479
I384
sI2857946
I384
sI2956252
I384
sI1121245
I4
sI2628574
I384
sI1121247
I4
sI1121248
I4
sI1121249
I4
sI2235363
I144
sI2923492
I384
sI2956265
I384
sI1121259
I4
sI1121260
I4
sI1121261
I4
sI1121262
I4
sI2956278
I384
sI2628600
I384
sI1121273
I4
sI1121274
I4
sI1121275
I4
sI1973244
I64
sI2923518
I384
sI2956291
I384
sI2628613
I384
sI1121287
I4
sI1121288
I4
sI1121301
I4
sI498719
I4
sI2366507
I144
sI2071602
I64
sI891982
I24
sI2602587
I384
sI2628717
I384
sI1121400
I4
sI1121401
I4
sI1121402
I4
sI1121403
I4
sI1121404
I4
sI1121405
I4
sI2858115
I384
sI1121414
I4
sI2628743
I384
sI1121416
I4
sI1121417
I4
sI1121418
I4
sI2235532
I144
sI2923661
I384
sI2956434
I384
sI1121428
I4
sI1121429
I4
sI1121430
I4
sI1121431
I4
sI2268318
I144
sI2956447
I384
sI2628769
I384
sI1121442
I4
sI1121443
I4
sI1121444
I4
sI1973413
I64
sI2923687
I384
sI2956460
I384
sI2628782
I384
sI1121456
I4
sI1121457
I4
sI1121470
I4
sI2333890
I144
sI2366676
I144
sI531674
I4
sI2775591
I384
sI1273725
I4
sI2137343
I64
sI924937
I24
sI410839
I4
sI2688218
I384
sI2628899
I384
sI2694445
I384
sI1121583
I4
sI2628912
I384
sI1121585
I4
sI1121586
I4
sI1121587
I4
sI2235701
I144
sI2775604
I384
sI2694458
I384
sI2628925
I384
sI1121598
I4
sI1121599
I4
sI1121600
I4
sI2268487
I144
sI2956616
I384
sI2628938
I384
sI1121611
I4
sI1121612
I4
sI1121613
I4
sI2923856
I384
sI2694484
I384
sI2956629
I384
sI2628951
I384
sI1121625
I4
sI1121626
I4
sI2694497
I384
sI171366
I4
sI1121639
I4
sI2688231
I384
sI2694510
I384
sI2977684
I1020
sI2694523
I384
sI3037761
I1020
sI2721004
I384
sI564629
I4
sI2137512
I64
sI1180916
I4
sI2977697
I1020
sI2203084
I64
sI2629081
I384
sI2235870
I144
sI2694627
I384
sI1121766
I4
sI1121767
I4
sI1121768
I4
sI1121769
I4
sI1154538
I4
sI1154539
I4
sI1154540
I4
sI1154541
I4
sI1154542
I4
sI2268656
I144
sI2629107
I384
sI1121780
I4
sI2327806
I144
sI1121782
I4
sI1973751
I64
sI1154552
I4
sI1154553
I4
sI1154554
I4
sI1154555
I4
sI2694653
I384
sI2956798
I384
sI2629120
I384
sI1121794
I4
sI1121795
I4
sI1154566
I4
sI1154567
I4
sI1154568
I4
sI2006537
I64
sI2694666
I384
sI2989582
I1020
sI2989583
I1020
sI1121808
I4
sI2334228
I144
sI1154581
I4
sI2694679
I384
sI2989596
I1020
sI2032901
I64
sI1154594
I4
sI2694692
I384
sI2721030
I384
sI2367014
I144
sI597584
I4
sI2360592
I144
sI1875562
I64
sI2203253
I64
sI990847
I24
sI2923115
I384
sI1116486
I4
sI2236039
I144
sI2629263
I384
sI2273219
I144
sI2268825
I144
sI2629276
I384
sI1121949
I4
sI1121950
I4
sI1121951
I4
sI1973920
I64
sI1154721
I4
sI1154722
I4
sI1154723
I4
sI1154724
I4
sI2694822
I384
sI2629289
I384
sI1121963
I4
sI1121964
I4
sI1154735
I4
sI1154736
I4
sI1154737
I4
sI2858674
I384
sI2694835
I384
sI1121977
I4
sI2334397
I144
sI1154750
I4
sI2858687
I384
sI2694848
I384
sI2989765
I1020
sI2742272
I384
sI1154763
I4
sI2858700
I384
sI2694861
I384
sI2367183
I144
sI2858713
I384
sI2858726
I384
sI2858739
I384
sI2202239
I64
sI1126357
I4
sI630539
I4
sI2858765
I384
sI1875731
I64
sI2858778
I384
sI2858791
I384
sI2236208
I144
sI1023802
I24
sI2268994
I144
sI2629445
I384
sI1974089
I64
sI2694991
I384
sI2629458
I384
sI1122132
I4
sI1122133
I4
sI1154904
I4
sI1154905
I4
sI1154906
I4
sI2006875
I64
sI2695004
I384
sI2727777
I384
sI1122146
I4
sI2334566
I144
sI1154919
I4
sI2858856
I384
sI2695017
I384
sI2727790
I384
sI1154932
I4
sI2858869
I384
sI2695030
I384
sI2367352
I144
sI2727803
I384
sI2858882
I384
sI2727816
I384
sI2858895
I384
sI2858908
I384
sI2170805
I64
sI2858934
I384
sI1875900
I64
sI2858947
I384
sI663494
I4
sI2858960
I384
sI2236377
I144
sI2269163
I144
sI1974258
I64
sI1056757
I24
sI2629627
I384
sI2301949
I144
sI2007044
I64
sI2695173
I384
sI2727946
I384
sI1122315
I4
sI1155087
I4
sI1155088
I4
sI2695186
I384
sI1187859
I4
sI1187860
I4
sI1187861
I4
sI2727959
I384
sI1155101
I4
sI2859038
I384
sI2695199
I384
sI1187873
I4
sI1187874
I4
sI2727972
I384
sI2859051
I384
sI1187887
I4
sI2727985
I384
sI2859064
I384
sI2859077
I384
sI2170974
I64
sI2859103
I384
sI1876069
I64
sI2859116
I384
sI1908855
I64
sI2859129
I384
sI696449
I4
sI2269332
I144
sI1974427
I64
sI2302118
I144
sI2333383
I144
sI2007213
I64
sI1089712
I24
sI2334904
I144
sI2695355
I384
sI2039999
I64
sI2728128
I384
sI1155270
I4
sI2695368
I384
sI1188042
I4
sI1188043
I4
sI2728141
I384
sI2859220
I384
sI1188056
I4
sI2891993
I384
sI2728154
I384
sI2859233
I384
sI2892006
I384
sI2859246
I384
sI2892019
I384
sI2892032
I384
sI2171143
I64
sI2859272
I384
sI2892045
I384
sI3005144
I1020
sI2859285
I384
sI2718287
I384
sI1909024
I64
sI2859298
I384
sI2892071
I384
sI2236715
I144
sI3037917
I1020
sI2892084
I384
sI1863732
I64
sI729404
I4
sI2269501
I144
sI1974596
I64
sI2302287
I144
sI2007382
I64
sI2335073
I144
sI2040168
I64
sI2695537
I384
sI2367859
I144
sI2728310
I384
sI2761083
I384
sI3037930
I1020
sI2295189
I144
sI1188225
I4
sI2728323
I384
sI1178706
I4
sI2761096
I384
sI2859402
I384
sI2892175
I384
sI2886325
I384
sI2761109
I384
sI2859415
I384
sI2892188
I384
sI2892201
I384
sI1181085
I4
sI2171312
I64
sI2859441
I384
sI2892214
I384
sI2945098
I384
sI2859454
I384
sI2204098
I64
sI2859467
I384
sI2892240
I384
sI2236884
I144
sI2892253
I384
sI2327975
I144
sI1974765
I64
sI762359
I24
sI2302456
I144
sI2007551
I64
sI2335242
I144
sI2945111
I384
sI2040337
I64
sI2033070
I64
sI2728492
I384
sI2761265
I384
sI1221180
I4
sI2761278
I384
sI2859584
I384
sI2892357
I384
sI2892370
I384
sI1181113
I4
sI2171481
I64
sI2859610
I384
sI2892383
I384
sI2859623
I384
sI2204267
I64
sI2859636
I384
sI2892409
I384
sI2237053
I144
sI2892422
I384
sI2269839
I144
sI1974934
I64
sI2302625
I144
sI2007720
I64
sI795314
I24
sI2335411
I144
sI2040506
I64
sI2368197
I144
sI2761447
I384
sI2202408
I64
sI2892539
I384
sI2925312
I384
sI2171650
I64
sI2859779
I384
sI2892552
I384
sI2925325
I384
sI2859792
I384
sI2204436
I64
sI2925338
I384
sI2859805
I384
sI2892578
I384
sI2925351
I384
sI1942317
I64
sI2892591
I384
sI2270008
I144
sI435006
I4
sI2925377
I384
sI2007889
I64
sI2335580
I144
sI2338960
I144
sI2040675
I64
sI828269
I24
sI2368366
I144
sI2794402
I384
sI2171819
I64
sI2892721
I384
sI2925494
I384
sI2204605
I64
sI2925507
I384
sI2892747
I384
sI2237391
I144
sI2925520
I384
sI1942486
I64
sI2892760
I384
sI2270177
I144
sI2925546
I384
sI2612051
I384
sI467961
I4
sI2606591
I384
sI2335749
I144
sI2040844
I64
sI2368535
I144
sI861224
I24
sI2106416
I64
sI2663505
I384
sI2171988
I64
sI2663518
I384
sI2860130
I384
sI2204774
I64
sI2663531
I384
sI2925676
I384
sI2860143
I384
sI2892916
I384
sI2237560
I144
sI2925689
I384
sI2892929
I384
sI2663557
I384
sI2270346
I144
sI2663570
I384
sI2925715
I384
sI2303132
I144
sI2663583
I384
sI1149794
I4
sI2663596
I384
sI500916
I4
sI2368704
I144
sI2106585
I64
sI894179
I24
sI1183100
I4
sI2172157
I64
sI2663687
I384
sI1123597
I4
sI1123598
I4
sI1123599
I4
sI1123600
I4
sI1123601
I4
sI1123602
I4
sI2663700
I384
sI2860312
I384
sI1123611
I4
sI1123612
I4
sI1123613
I4
sI1123614
I4
sI1123615
I4
sI2663713
I384
sI2925858
I384
sI2958631
I384
sI1942824
I64
sI1123625
I4
sI1123626
I4
sI1123627
I4
sI1123628
I4
sI2663726
I384
sI2715869
I384
sI2958644
I384
sI1123639
I4
sI1123640
I4
sI1123641
I4
sI1975610
I64
sI2663739
I384
sI2925884
I384
sI2958657
I384
sI2303301
I144
sI1123654
I4
sI2663752
I384
sI1123667
I4
sI2663765
I384
sI2336087
I144
sI1152552
I4
sI2368873
I144
sI533871
I4
sI2106754
I64
sI2808728
I384
sI2172326
I64
sI2718326
I384
sI2205112
I64
sI2663869
I384
sI1123780
I4
sI1123781
I4
sI1123782
I4
sI1123783
I4
sI1123784
I4
sI2237898
I144
sI1942993
I64
sI1123794
I4
sI1123795
I4
sI1123796
I4
sI1123797
I4
sI2827734
I384
sI2663895
I384
sI2270684
I144
sI2958813
I384
sI2808741
I384
sI1123808
I4
sI1123809
I4
sI1123810
I4
sI2827747
I384
sI2663908
I384
sI2926053
I384
sI2958826
I384
sI1123822
I4
sI1123823
I4
sI2827760
I384
sI2663921
I384
sI1123836
I4
sI2827773
I384
sI2663934
I384
sI2336256
I144
sI2945280
I384
sI2827786
I384
sI2721368
I384
sI2827799
I384
sI2715908
I384
sI566826
I4
sI2827825
I384
sI2139709
I64
sI2827838
I384
sI2827851
I384
sI2827864
I384
sI960089
I24
sI2205281
I64
sI2715921
I384
sI2238067
I144
sI2696824
I384
sI1943162
I64
sI1123963
I4
sI1123964
I4
sI1123965
I4
sI1123966
I4
sI2664064
I384
sI2270853
I144
sI1123977
I4
sI1123978
I4
sI1123979
I4
sI2827916
I384
sI2664077
I384
sI2696850
I384
sI2958995
I384
sI1123991
I4
sI1123992
I4
sI2628548
I384
sI2664090
I384
sI2696863
I384
sI1124005
I4
sI2827942
I384
sI2664103
I384
sI2336425
I144
sI2696876
I384
sI2827955
I384
sI2715934
I384
sI2696889
I384
sI2369211
I144
sI2827968
I384
sI2827994
I384
sI599781
I4
sI2828007
I384
sI2828020
I384
sI2172664
I64
sI2828033
I384
sI2715947
I384
sI2205450
I64
sI993044
I24
sI2238236
I144
sI1943331
I64
sI2664233
I384
sI2271022
I144
sI1124146
I4
sI1124147
I4
sI1124148
I4
sI1976117
I64
sI1156918
I4
sI1156919
I4
sI1156920
I4
sI1156921
I4
sI2890719
I384
sI1124160
I4
sI1124161
I4
sI2828098
I384
sI2664259
I384
sI1156932
I4
sI1156933
I4
sI1156934
I4
sI2697032
I384
sI1124174
I4
sI2828111
I384
sI2664272
I384
sI2715960
I384
sI1156946
I4
sI1156947
I4
sI2697045
I384
sI2339129
I144
sI2828124
I384
sI1156960
I4
sI2697058
I384
sI2369380
I144
sI2828137
I384
sI1209308
I4
sI2828163
I384
sI2890732
I384
sI2828176
I384
sI2828189
I384
sI632736
I4
sI1877928
I64
sI2828202
I384
sI2238405
I144
sI1943500
I64
sI1025999
I24
sI2271191
I144
sI1976286
I64
sI2664415
I384
sI2697188
I384
sI1124329
I4
sI1124330
I4
sI2664428
I384
sI1157101
I4
sI1157102
I4
sI1157103
I4
sI2009072
I64
sI2697201
I384
sI1124343
I4
sI2828280
I384
sI2664441
I384
sI1157115
I4
sI1157116
I4
sI2861053
I384
sI2697214
I384
sI2746861
I384
sI2828293
I384
sI1157129
I4
sI2861066
I384
sI2697227
I384
sI2369549
I144
sI2828306
I384
sI2861079
I384
sI2861092
I384
sI2300935
I144
sI2828332
I384
sI2861105
I384
sI2828345
I384
sI2828358
I384
sI2861131
I384
sI1878097
I64
sI2828371
I384
sI2861144
I384
sI665691
I4
sI2861157
I384
sI2238574
I144
sI1943669
I64
sI2271360
I144
sI1976455
I64
sI1058954
I24
sI2304146
I144
sI2664597
I384
sI2009241
I64
sI2697370
I384
sI2730143
I384
sI1124512
I4
sI2664610
I384
sI1157284
I4
sI1157285
I4
sI2697383
I384
sI2730156
I384
sI2828462
I384
sI1157298
I4
sI2861235
I384
sI2697396
I384
sI2369718
I144
sI2730169
I384
sI2828475
I384
sI2861248
I384
sI2730182
I384
sI2861261
I384
sI2828501
I384
sI2861274
I384
sI2828514
I384
sI2828527
I384
sI2173171
I64
sI2861300
I384
sI1878266
I64
sI2828540
I384
sI2861313
I384
sI2861326
I384
sI698646
I4
sI1943838
I64
sI2271529
I144
sI1976624
I64
sI2304315
I144
sI2009410
I64
sI1091909
I24
sI2664779
I384
sI2697552
I384
sI2730325
I384
sI1157467
I4
sI2697565
I384
sI1190239
I4
sI1190240
I4
sI2730338
I384
sI2828644
I384
sI2861417
I384
sI1190253
I4
sI2730351
I384
sI1485172
I1020
sI2861430
I384
sI2828670
I384
sI2861443
I384
sI2828683
I384
sI2828696
I384
sI2173340
I64
sI2861469
I384
sI2828709
I384
sI2861482
I384
sI1911221
I64
sI2861495
I384
sI2238912
I144
sI1944007
I64
sI731601
I4
sI2271698
I144
sI2808910
I384
sI1976793
I64
sI2304484
I144
sI2009579
I64
sI2337270
I144
sI2697734
I384
sI2370056
I144
sI2730507
I384
sI1190422
I4
sI2730520
I384
sI2861599
I384
sI2894372
I384
sI2828839
I384
sI2861612
I384
sI2894385
I384
sI2828852
I384
sI2894398
I384
sI2828865
I384
sI2361099
I144
sI2180438
I64
sI2173509
I64
sI2861638
I384
sI2894411
I384
sI2828878
I384
sI2861651
I384
sI2716090
I384
sI2861664
I384
sI2894437
I384
sI2239081
I144
sI1944176
I64
sI2894450
I384
sI1976962
I64
sI764556
I24
sI2304653
I144
sI2009748
I64
sI2337439
I144
sI2716103
I384
sI2393885
I144
sI2370225
I144
sI2730689
I384
sI2763462
I384
sI2763475
I384
sI2861781
I384
sI2894554
I384
sI2628730
I384
sI2894567
I384
sI2173678
I64
sI2861807
I384
sI2894580
I384
sI2716116
I384
sI2861820
I384
sI2206464
I64
sI3189510
I1020
sI2861833
I384
sI2894606
I384
sI2239250
I144
sI3189523
I1020
sI404248
I4
sI2894619
I384
sI2272036
I144
sI1977131
I64
sI2304822
I144
sI2009917
I64
sI2978273
I1020
sI2337608
I144
sI2075489
I64
sI2632565
I384
sI2628756
I384
sI2763644
I384
sI2632578
I384
sI2829190
I384
sI2632591
I384
sI2894736
I384
sI2829203
I384
sI2173847
I64
sI2861976
I384
sI2632604
I384
sI2894749
I384
sI2829216
I384
sI2861989
I384
sI2632617
I384
sI2862002
I384
sI2632630
I384
sI2894775
I384
sI2239419
I144
sI3189692
I1020
sI2632643
I384
sI2894788
I384
sI2272205
I144
sI2632656
I384
sI437203
I4
sI2632669
I384
sI2010086
I64
sI2606929
I384
sI2337777
I144
sI830466
I24
sI2075658
I64
sI2301104
I144
sI2632747
I384
sI2632760
I384
sI2829372
I384
sI2174016
I64
sI2632773
I384
sI2894918
I384
sI2829385
I384
sI2927691
I384
sI2632786
I384
sI2639715
I384
sI2927704
I384
sI2632799
I384
sI2894944
I384
sI2927717
I384
sI1944683
I64
sI2632812
I384
sI2894957
I384
sI2272374
I144
sI2632825
I384
sI2927743
I384
sI2632838
I384
sI2305160
I144
sI470158
I4
sI2337946
I144
sI2075827
I64
sI863421
I24
sI2632929
I384
sI2174185
I64
sI2632942
I384
sI2829554
I384
sI2862327
I384
sI2206971
I64
sI2927873
I384
sI2862340
I384
sI2632968
I384
sI2895113
I384
sI2239757
I144
sI2927886
I384
sI2632981
I384
sI2895126
I384
sI2272543
I144
sI2632994
I384
sI2927912
I384
sI2633007
I384
sI2305329
I144
sI503113
I4
sI2075996
I64
sI2108782
I64
sI2174354
I64
sI2633111
I384
sI2665884
I384
sI2207140
I64
sI2665897
I384
sI2862509
I384
sI2633137
I384
sI2665910
I384
sI2928055
I384
sI1945021
I64
sI2633150
I384
sI2665923
I384
sI2272712
I144
sI2633163
I384
sI2665936
I384
sI2928081
I384
sI142805
I4
sI2633176
I384
sI2305498
I144
sI2665949
I384
sI2665962
I384
sI2338284
I144
sI2972927
I1020
sI536068
I4
sI2108951
I64
sI929331
I24
sI2972937
I1020
sI2174523
I64
sI2633293
I384
sI2666066
I384
sI1125977
I4
sI2633306
I384
sI1125979
I4
sI1125980
I4
sI1125981
I4
sI2666079
I384
sI1945190
I64
sI2633319
I384
sI2895464
I384
sI1125993
I4
sI1125994
I4
sI2666092
I384
sI2961010
I384
sI2633332
I384
sI1126005
I4
sI1126006
I4
sI1126007
I4
sI2666105
I384
sI2928250
I384
sI2961023
I384
sI2633345
I384
sI2305667
I144
sI1126020
I4
sI2666118
I384
sI1126033
I4
sI2666131
I384
sI2338453
I144
sI2394054
I144
sI569023
I4
sI2980275
I1020
sI2202915
I64
sI962286
I24
sI2207478
I64
sI2633475
I384
sI2666248
I384
sI2323074
I144
sI1945359
I64
sI2633488
I384
sI1126161
I4
sI1126162
I4
sI1126163
I4
sI2666261
I384
sI2273050
I144
sI2633501
I384
sI1126174
I4
sI1126175
I4
sI1126176
I4
sI2830113
I384
sI2666274
I384
sI2961192
I384
sI2633514
I384
sI2305836
I144
sI1126189
I4
sI2830126
I384
sI2666287
I384
sI2972979
I1020
sI2657304
I384
sI1126202
I4
sI2830139
I384
sI2666300
I384
sI2338622
I144
sI2830152
I384
sI2830165
I384
sI2830191
I384
sI2891070
I384
sI601978
I4
sI2830204
I384
sI2830217
I384
sI2174861
I64
sI2830230
I384
sI2207647
I64
sI995241
I24
sI2694471
I384
sI2240433
I144
sI1945528
I64
sI2633657
I384
sI2666430
I384
sI2699203
I384
sI2633670
I384
sI1126343
I4
sI1126344
I4
sI1126345
I4
sI1978314
I64
sI2666443
I384
sI2699216
I384
sI2633683
I384
sI2306005
I144
sI1126358
I4
sI2830295
I384
sI2666456
I384
sI2973007
I1020
sI2699229
I384
sI1126371
I4
sI2830308
I384
sI2666469
I384
sI2338791
I144
sI2699242
I384
sI2830321
I384
sI2699255
I384
sI2830334
I384
sI2301273
I144
sI2830360
I384
sI2142244
I64
sI2830373
I384
sI2830386
I384
sI634933
I4
sI2830399
I384
sI2639884
I384
sI2240602
I144
sI1945697
I64
sI1028196
I24
sI2568293
I144
sI2273388
I144
sI2633839
I384
sI1978483
I64
sI2666612
I384
sI2699385
I384
sI2633852
I384
sI1126526
I4
sI1126527
I4
sI2666625
I384
sI1159298
I4
sI1159299
I4
sI1159300
I4
sI2699398
I384
sI1126540
I4
sI2830477
I384
sI2666638
I384
sI1159312
I4
sI1159313
I4
sI2699411
I384
sI2830490
I384
sI1159326
I4
sI2699424
I384
sI2830503
I384
sI2830529
I384
sI2142413
I64
sI2830542
I384
sI2830555
I384
sI1880294
I64
sI2830568
I384
sI667888
I4
sI2240771
I144
sI1945866
I64
sI2568462
I144
sI2273557
I144
sI1978652
I64
sI2601690
I384
sI1061151
I24
sI2634021
I384
sI2306343
I144
sI2666794
I384
sI2699567
I384
sI1126709
I4
sI2666807
I384
sI1159481
I4
sI1159482
I4
sI2699580
I384
sI2830659
I384
sI1159495
I4
sI2863432
I384
sI2699593
I384
sI2830672
I384
sI2863445
I384
sI2863458
I384
sI2830698
I384
sI2863471
I384
sI2142582
I64
sI2830711
I384
sI2830724
I384
sI2863497
I384
sI1880463
I64
sI2830737
I384
sI2863510
I384
sI2863523
I384
sI700843
I4
sI1946035
I64
sI2568631
I144
sI2273726
I144
sI1978821
I64
sI2306512
I144
sI1094106
I24
sI2685696
I384
sI2666976
I384
sI2339298
I144
sI2699749
I384
sI2732522
I384
sI1159664
I4
sI2699762
I384
sI2732535
I384
sI2830841
I384
sI2863614
I384
sI2732548
I384
sI2863627
I384
sI2830867
I384
sI2863640
I384
sI2142751
I64
sI2830880
I384
sI3158569
I1020
sI3158570
I1020
sI2830893
I384
sI2175537
I64
sI2863666
I384
sI3158582
I1020
sI3158583
I1020
sI2830906
I384
sI2863679
I384
sI3158596
I1020
sI2863692
I384
sI2973112
I1020
sI2241109
I144
sI1946204
I64
sI2568800
I144
sI733798
I4
sI2273895
I144
sI1978990
I64
sI2306681
I144
sI2842047
I384
sI2044562
I64
sI2601625
I384
sI2699931
I384
sI2732704
I384
sI2601638
I384
sI1192619
I4
sI2732717
I384
sI2601651
I384
sI2863796
I384
sI2831036
I384
sI2601664
I384
sI2863809
I384
sI2142920
I64
sI2831049
I384
sI2601677
I384
sI2831062
I384
sI2175706
I64
sI2863835
I384
sI3158751
I1020
sI3158752
I1020
sI2831075
I384
sI2716454
I384
sI2601703
I384
sI2863848
I384
sI3158765
I1020
sI1214589
I4
sI373490
I4
sI2601716
I384
sI2863861
I384
sI2241278
I144
sI2601729
I384
sI2323243
I144
sI1946373
I64
sI2427009
I144
sI2568969
I144
sI2601742
I384
sI1979159
I64
sI766753
I24
sI2306850
I144
sI2973147
I1020
sI2716467
I384
sI2339636
I144
sI2044731
I64
sI3011383
I1020
sI2601807
I384
sI3011384
I1020
sI2799186
I384
sI2732886
I384
sI2601820
I384
sI2629094
I384
sI2601833
I384
sI2863978
I384
sI2896751
I384
sI2143089
I64
sI2601846
I384
sI2896764
I384
sI2175875
I64
sI2864004
I384
sI2896777
I384
sI2601872
I384
sI2864017
I384
sI3158934
I1020
sI3013568
I1020
sI1913756
I64
sI2601885
I384
sI2864030
I384
sI2749253
I384
sI2694640
I384
sI2896803
I384
sI2241447
I144
sI2601898
I384
sI406445
I4
sI2896816
I384
sI2569138
I144
sI2601911
I384
sI2274233
I144
sI1121781
I4
sI1979328
I64
sI2307019
I144
sI799708
I24
sI2339805
I144
sI2044900
I64
sI2601989
I384
sI2765841
I384
sI2602002
I384
sI2143258
I64
sI2831387
I384
sI2602015
I384
sI2896933
I384
sI2831400
I384
sI2176044
I64
sI2864173
I384
sI2896946
I384
sI2831413
I384
sI2602041
I384
sI2864186
I384
sI2208830
I64
sI2602054
I384
sI2864199
I384
sI2896972
I384
sI2241616
I144
sI3191889
I1020
sI2602067
I384
sI2896985
I384
sI2569307
I144
sI2602080
I384
sI2274402
I144
sI439400
I4
sI2656446
I384
sI1154580
I4
sI2339974
I144
sI2045069
I64
sI832663
I24
sI2077855
I64
sI2602171
I384
sI2634944
I384
sI2143427
I64
sI2602184
I384
sI2634957
I384
sI2831569
I384
sI2602197
I384
sI2634970
I384
sI2897115
I384
sI2831582
I384
sI2602210
I384
sI2208999
I64
sI1914094
I64
sI2602223
I384
sI2634996
I384
sI2897141
I384
sI2241785
I144
sI2602236
I384
sI2635009
I384
sI2897154
I384
sI2569476
I144
sI2602249
I384
sI2274571
I144
sI2635022
I384
sI2601859
I384
sI2635035
I384
sI2307357
I144
sI472355
I4
sI2340143
I144
sI2045238
I64
sI2078024
I64
sI2143596
I64
sI2602353
I384
sI2635126
I384
sI2176382
I64
sI2635139
I384
sI2831751
I384
sI2602379
I384
sI2864524
I384
sI2209168
I64
sI2930070
I384
sI1914263
I64
sI2602392
I384
sI2864537
I384
sI2635165
I384
sI2897310
I384
sI2930083
I384
sI2602405
I384
sI2742467
I384
sI2635178
I384
sI2897323
I384
sI2569645
I144
sI2602418
I384
sI2274740
I144
sI2635191
I384
sI2930109
I384
sI2635204
I384
sI2307526
I144
sI1118867
I4
sI2744651
I384
sI505310
I4
sI2078193
I64
sI898573
I24
sI2602535
I384
sI2635308
I384
sI2602548
I384
sI2635321
I384
sI1914432
I64
sI2602561
I384
sI2864706
I384
sI2799173
I384
sI2635334
I384
sI2242123
I144
sI2930252
I384
sI2602574
I384
sI1947218
I64
sI2635347
I384
sI2569814
I144
sI3066127
I1020
sI2274909
I144
sI2799199
I384
sI2635360
I384
sI2930278
I384
sI1685099
I1020
sI2799212
I384
sI2635373
I384
sI2307695
I144
sI2799225
I384
sI2340481
I144
sI1209282
I4
sI2799251
I384
sI538265
I4
sI2799264
I384
sI3066140
I1020
sI2111148
I64
sI2799277
I384
sI2799290
I384
sI2143934
I64
sI2799303
I384
sI931528
I24
sI2176720
I64
sI2716623
I384
sI2602717
I384
sI2209506
I64
sI2668263
I384
sI1914601
I64
sI2602730
I384
sI2635503
I384
sI2242292
I144
sI3066153
I1020
sI1947387
I64
sI2635516
I384
sI1116458
I4
sI2569983
I144
sI2668289
I384
sI2602756
I384
sI2275078
I144
sI2799368
I384
sI2635529
I384
sI2668302
I384
sI2787629
I384
sI2799381
I384
sI2635542
I384
sI2307864
I144
sI2668315
I384
sI2799394
I384
sI2668328
I384
sI2716636
I384
sI2340650
I144
sI2799420
I384
sI2799433
I384
sI1247544
I4
sI571220
I4
sI2799446
I384
sI2787642
I384
sI2799459
I384
sI2144103
I64
sI2885948
I384
sI2799472
I384
sI964483
I24
sI2209675
I64
sI1914770
I64
sI2602899
I384
sI2694809
I384
sI2635672
I384
sI2242461
I144
sI2602912
I384
sI1947556
I64
sI2635685
I384
sI1128358
I4
sI1128359
I4
sI1128360
I4
sI2668458
I384
sI2602925
I384
sI2799537
I384
sI2635698
I384
sI1128371
I4
sI1128372
I4
sI1128373
I4
sI2668471
I384
sI2963389
I384
sI2799550
I384
sI2635711
I384
sI2308033
I144
sI1128386
I4
sI2668484
I384
sI2799563
I384
sI1128399
I4
sI2668497
I384
sI2340819
I144
sI2799589
I384
sI2799602
I384
sI2951507
I384
sI2799615
I384
sI2301611
I144
sI2799628
I384
sI604175
I4
sI2799641
I384
sI2177058
I64
sI2209844
I64
sI1914939
I64
sI997438
I24
sI2537535
I144
sI2917070
I384
sI2242630
I144
sI2603081
I384
sI1947725
I64
sI2635854
I384
sI2668627
I384
sI2603094
I384
sI2275416
I144
sI2635867
I384
sI1128540
I4
sI1128541
I4
sI1128542
I4
sI2668640
I384
sI2799719
I384
sI2635880
I384
sI1128554
I4
sI1128555
I4
sI2832492
I384
sI2668653
I384
sI1154749
I4
sI2799732
I384
sI1128568
I4
sI2832505
I384
sI2668666
I384
sI2340988
I144
sI2832518
I384
sI2799758
I384
sI2832531
I384
sI2799771
I384
sI2886000
I384
sI2799784
I384
sI2832557
I384
sI2799797
I384
sI2832570
I384
sI2799810
I384
sI2832583
I384
sI637130
I4
sI2832596
I384
sI2336594
I144
sI1915108
I64
sI2537704
I144
sI2242799
I144
sI1947894
I64
sI1030393
I24
sI1116543
I4
sI2603263
I384
sI2275585
I144
sI2636036
I384
sI2668809
I384
sI2701582
I384
sI2636049
I384
sI1128723
I4
sI1128724
I4
sI2668822
I384
sI2701595
I384
sI2799901
I384
sI1128737
I4
sI2832674
I384
sI2668835
I384
sI2341157
I144
sI2701608
I384
sI2832687
I384
sI2701621
I384
sI2799927
I384
sI2832700
I384
sI2799940
I384
sI3127628
I1020
sI3127629
I1020
sI3127630
I1020
sI2799953
I384
sI2832726
I384
sI3127641
I1020
sI3127642
I1020
sI3127643
I1020
sI2799966
I384
sI2144610
I64
sI2832739
I384
sI3127655
I1020
sI3127656
I1020
sI2799979
I384
sI2832752
I384
sI3127669
I1020
sI2832765
I384
sI670085
I4
sI1915277
I64
sI2537873
I144
sI2242968
I144
sI1948063
I64
sI2275754
I144
sI1063348
I24
sI2636218
I384
sI2668991
I384
sI2013635
I64
sI2701764
I384
sI1128906
I4
sI2669004
I384
sI2341326
I144
sI1161679
I4
sI2701777
I384
sI2832856
I384
sI1161692
I4
sI2701790
I384
sI2800096
I384
sI2832869
I384
sI2800109
I384
sI2800122
I384
sI2919267
I384
sI2832895
I384
sI3127810
I1020
sI3127811
I1020
sI3127812
I1020
sI2800135
I384
sI2144779
I64
sI2832908
I384
sI3127824
I1020
sI3127825
I1020
sI2800148
I384
sI2832921
I384
sI3127838
I1020
sI1882660
I64
sI2832934
I384
sI1915446
I64
sI2538042
I144
sI703040
I4
sI1948232
I64
sI2804152
I384
sI2275923
I144
sI2481934
I144
sI2308709
I144
sI2013804
I64
sI2744690
I384
sI1096303
I24
sI2669173
I384
sI2341495
I144
sI2701946
I384
sI1161861
I4
sI2701959
I384
sI2833038
I384
sI2865811
I384
sI2804165
I384
sI2865824
I384
sI2833064
I384
sI2865837
I384
sI2144948
I64
sI2833077
I384
sI3127993
I1020
sI3127994
I1020
sI2833090
I384
sI2865863
I384
sI342732
I4
sI2973474
I1020
sI2833103
I384
sI2716792
I384
sI2973475
I1020
sI2865876
I384
sI2973476
I1020
sI1915615
I64
sI2865889
I384
sI2538211
I144
sI2243306
I144
sI2804178
I384
sI2323581
I144
sI1948401
I64
sI735995
I4
sI2276092
I144
sI2308878
I144
sI2013973
I64
sI2716805
I384
sI2341664
I144
sI2973489
I1020
sI2702128
I384
sI2734901
I384
sI2800447
I384
sI2734914
I384
sI2865993
I384
sI2800460
I384
sI2833233
I384
sI2787811
I384
sI2866006
I384
sI2800473
I384
sI2145117
I64
sI2833246
I384
sI2800486
I384
sI2833259
I384
sI2177903
I64
sI2866032
I384
sI3160948
I1020
sI3160949
I1020
sI2833272
I384
sI2866045
I384
sI3160962
I1020
sI2061462
I64
sI375687
I4
sI2866058
I384
sI3011735
I1020
sI2538380
I144
sI2243475
I144
sI1948570
I64
sI2886130
I384
sI768950
I24
sI2309047
I144
sI2014142
I64
sI1209505
I4
sI2046928
I64
sI2604004
I384
sI2951676
I384
sI2735083
I384
sI2604017
I384
sI2800629
I384
sI2301780
I144
sI2604030
I384
sI2866175
I384
sI2800642
I384
sI2145286
I64
sI2604043
I384
sI2800655
I384
sI2604056
I384
sI2866201
I384
sI2604069
I384
sI2866214
I384
sI3161131
I1020
sI2604082
I384
sI2866227
I384
sI2538549
I144
sI2243644
I144
sI2604095
I384
sI408642
I4
sI2886156
I384
sI2604108
I384
sI2276430
I144
sI2309216
I144
sI2656784
I384
sI1154918
I4
sI2014311
I64
sI801905
I24
sI2047097
I64
sI2886169
I384
sI2604186
I384
sI2947659
I384
sI2604199
I384
sI2800811
I384
sI2145455
I64
sI2833584
I384
sI2604212
I384
sI2800824
I384
sI2899130
I384
sI2833597
I384
sI2604225
I384
sI2866370
I384
sI2899143
I384
sI2833610
I384
sI2604238
I384
sI2866383
I384
sI2604251
I384
sI2866396
I384
sI2538718
I144
sI2899169
I384
sI2243813
I144
sI2604264
I384
sI2899182
I384
sI2604277
I384
sI2276599
I144
sI441597
I4
sI2176213
I64
sI2014480
I64
sI2047266
I64
sI2296372
I144
sI2604368
I384
sI2145624
I64
sI2604381
I384
sI2800993
I384
sI2833766
I384
sI2604394
I384
sI2634983
I384
sI1133117
I4
sI2899312
I384
sI2833779
I384
sI2604407
I384
sI2211196
I64
sI1916291
I64
sI2604420
I384
sI2538887
I144
sI2899338
I384
sI2243982
I144
sI2604433
I384
sI2899351
I384
sI2604446
I384
sI2276768
I144
sI2309554
I144
sI474552
I4
sI2047435
I64
sI2080221
I64
sI867815
I24
sI2145793
I64
sI2604550
I384
sI2637323
I384
sI2604563
I384
sI2637336
I384
sI2833948
I384
sI2604576
I384
sI2866721
I384
sI2637349
I384
sI1916460
I64
sI2604589
I384
sI2866734
I384
sI2539056
I144
sI2637362
I384
sI2899507
I384
sI2244151
I144
sI2604602
I384
sI2637375
I384
sI2899520
I384
sI114244
I4
sI2604615
I384
sI2276937
I144
sI2637388
I384
sI2637401
I384
sI2309723
I144
sI507507
I4
sI2080390
I64
sI2804334
I384
sI1302469
I4
sI900770
I24
sI2604732
I384
sI2637505
I384
sI3004416
I1020
sI2604745
I384
sI2637518
I384
sI1916629
I64
sI2604758
I384
sI2866903
I384
sI2637531
I384
sI2932449
I384
sI2804347
I384
sI2323750
I144
sI2637544
I384
sI2604784
I384
sI2277106
I144
sI2637557
I384
sI2932475
I384
sI2637570
I384
sI2309892
I144
sI2716974
I384
sI2973658
I1020
sI540462
I4
sI2146131
I64
sI1185507
I4
sI933725
I24
sI2178917
I64
sI2604914
I384
sI2637687
I384
sI2913599
I384
sI1916798
I64
sI2604927
I384
sI2637700
I384
sI2244489
I144
sI2604940
I384
sI2801552
I384
sI2637713
I384
sI2899858
I384
sI2604953
I384
sI2277275
I144
sI2801565
I384
sI2637726
I384
sI2932644
I384
sI2801578
I384
sI2637739
I384
sI2310061
I144
sI2801591
I384
sI1209674
I4
sI2801617
I384
sI2801630
I384
sI573417
I4
sI2801643
I384
sI2801656
I384
sI2146300
I64
sI2801669
I384
sI966680
I24
sI2506777
I144
sI2211872
I64
sI1916967
I64
sI2605096
I384
sI2539563
I144
sI2637869
I384
sI2670642
I384
sI2605109
I384
sI2637882
I384
sI2670655
I384
sI2605122
I384
sI2277444
I144
sI2801734
I384
sI2637895
I384
sI2670668
I384
sI2801747
I384
sI2637908
I384
sI2310230
I144
sI2230969
I144
sI2670681
I384
sI2801760
I384
sI2670694
I384
sI3096687
I1020
sI3096688
I1020
sI3096689
I1020
sI3096690
I1020
sI2801786
I384
sI3096700
I1020
sI3096701
I1020
sI3096702
I1020
sI3096703
I1020
sI3006613
I1020
sI2801799
I384
sI3096714
I1020
sI3096715
I1020
sI3096716
I1020
sI2886338
I384
sI2113683
I64
sI2801812
I384
sI3096728
I1020
sI3096729
I1020
sI2801825
I384
sI606372
I4
sI3096742
I1020
sI2801838
I384
sI2179255
I64
sI2506946
I144
sI2367521
I144
sI2212041
I64
sI1917136
I64
sI999635
I24
sI2539732
I144
sI2244827
I144
sI2605278
I384
sI2638051
I384
sI2670824
I384
sI2605291
I384
sI2638064
I384
sI1130737
I4
sI1130738
I4
sI1130739
I4
sI1982708
I64
sI2670837
I384
sI2801916
I384
sI2638077
I384
sI2310399
I144
sI1130752
I4
sI2670850
I384
sI2801929
I384
sI1130765
I4
sI2670863
I384
sI2801955
I384
sI3096869
I1020
sI3096870
I1020
sI3096871
I1020
sI3096872
I1020
sI2296541
I144
sI2801968
I384
sI3096883
I1020
sI3096884
I1020
sI3096885
I1020
sI2113852
I64
sI2801981
I384
sI3096897
I1020
sI3096898
I1020
sI2801994
I384
sI3096911
I1020
sI2802007
I384
sI639327
I4
sI2635152
I384
sI2507115
I144
sI1917305
I64
sI2539901
I144
sI2244996
I144
sI1032590
I24
sI2605460
I384
sI2277782
I144
sI2638233
I384
sI1982877
I64
sI2671006
I384
sI2638246
I384
sI1130920
I4
sI1130921
I4
sI2671019
I384
sI2802098
I384
sI1130934
I4
sI2834871
I384
sI2671032
I384
sI2834884
I384
sI2802124
I384
sI2834897
I384
sI2802137
I384
sI3097052
I1020
sI3097053
I1020
sI3097054
I1020
sI2114021
I64
sI2802150
I384
sI3097066
I1020
sI3097067
I1020
sI2802163
I384
sI3097080
I1020
sI2802176
I384
sI2834949
I384
sI2834962
I384
sI2507284
I144
sI672282
I4
sI1917474
I64
sI2540070
I144
sI2245165
I144
sI2277951
I144
sI1983046
I64
sI1065545
I24
sI2638415
I384
sI2310737
I144
sI2671188
I384
sI2703961
I384
sI1131103
I4
sI2671201
I384
sI2703974
I384
sI2835053
I384
sI2703987
I384
sI2802293
I384
sI2835066
I384
sI2802306
I384
sI2114190
I64
sI2802319
I384
sI3097235
I1020
sI3097236
I1020
sI2744430
I384
sI3130007
I1020
sI3130008
I1020
sI3130009
I1020
sI2802332
I384
sI2146976
I64
sI3097249
I1020
sI3130021
I1020
sI3130022
I1020
sI2802345
I384
sI2835118
I384
sI3130035
I1020
sI2835131
I384
sI2507453
I144
sI1917643
I64
sI2540239
I144
sI705237
I4
sI2804516
I384
sI2278120
I144
sI1983215
I64
sI2837289
I384
sI2016001
I64
sI1098500
I24
sI2671370
I384
sI2704143
I384
sI1164058
I4
sI2704156
I384
sI2835235
I384
sI2114359
I64
sI2835261
I384
sI3099446
I1020
sI2356705
I144
sI2147145
I64
sI3097418
I1020
sI3130190
I1020
sI3130191
I1020
sI2835287
I384
sI3130204
I1020
sI2835300
I384
sI2507622
I144
sI1917812
I64
sI1242601
I4
sI2540408
I144
sI2245503
I144
sI738192
I4
sI2278289
I144
sI1983384
I64
sI2311075
I144
sI2016170
I64
sI2704325
I384
sI2744482
I384
sI2802644
I384
sI2868190
I384
sI2114528
I64
sI2802657
I384
sI2835430
I384
sI2868203
I384
sI1149778
I4
sI2802670
I384
sI2147314
I64
sI2835443
I384
sI2802683
I384
sI1149781
I4
sI2835456
I384
sI2868229
I384
sI2835469
I384
sI2507791
I144
sI2868242
I384
sI2744495
I384
sI377884
I4
sI2868255
I384
sI2540577
I144
sI2980457
I1020
sI2245672
I144
sI1983553
I64
sI771147
I24
sI2311244
I144
sI2231138
I144
sI2016339
I64
sI2744508
I384
sI2782741
I384
sI2737280
I384
sI2114697
I64
sI2802826
I384
sI2868372
I384
sI2802839
I384
sI2147483
I64
sI2802852
I384
sI2180269
I64
sI2868398
I384
sI1885364
I64
sI2744521
I384
sI2507960
I144
sI2689908
I384
sI2868411
I384
sI2367690
I144
sI3163328
I1020
sI2868424
I384
sI2540746
I144
sI2245841
I144
sI2984825
I1020
sI2278627
I144
sI2657148
I384
sI1983722
I64
sI2176551
I64
sI2919293
I384
sI2311413
I144
sI2016508
I64
sI2049294
I64
sI1117062
I4
sI2606383
I384
sI2114866
I64
sI2606396
I384
sI2803008
I384
sI2147652
I64
sI2835781
I384
sI2606409
I384
sI2803021
I384
sI2835794
I384
sI2606422
I384
sI2209337
I64
sI1885533
I64
sI2835807
I384
sI2508129
I144
sI2606435
I384
sI2868580
I384
sI2606448
I384
sI2868593
I384
sI2540915
I144
sI2246010
I144
sI2606461
I384
sI2606474
I384
sI2278796
I144
sI2329496
I144
sI443794
I4
sI2016677
I64
sI2049463
I64
sI837057
I24
sI2606565
I384
sI2147821
I64
sI2606578
I384
sI2803190
I384
sI2835963
I384
sI2180607
I64
sI2901509
I384
sI1885702
I64
sI2835976
I384
sI2606604
I384
sI2606617
I384
sI2541084
I144
sI2901535
I384
sI2246179
I144
sI2606630
I384
sI2901548
I384
sI2606643
I384
sI2278965
I144
sI2311751
I144
sI476749
I4
sI2049632
I64
sI2613520
I384
sI870012
I24
sI2115204
I64
sI2147990
I64
sI2606747
I384
sI2606760
I384
sI1885871
I64
sI2836145
I384
sI2770612
I384
sI2606773
I384
sI2868918
I384
sI2213562
I64
sI2770625
I384
sI2606786
I384
sI2868931
I384
sI2541253
I144
sI2901704
I384
sI2246348
I144
sI2770638
I384
sI2606799
I384
sI2901717
I384
sI1656538
I1020
sI2770651
I384
sI2606812
I384
sI2279134
I144
sI2311920
I144
sI2770677
I384
sI2770690
I384
sI509704
I4
sI2770703
I384
sI2082587
I64
sI2770716
I384
sI2770729
I384
sI2115373
I64
sI2770742
I384
sI902967
I24
sI3099615
I1020
sI2180945
I64
sI2639702
I384
sI1886040
I64
sI2508636
I144
sI2606942
I384
sI2213731
I64
sI2770794
I384
sI2606955
I384
sI2869100
I384
sI2639728
I384
sI2246517
I144
sI2770807
I384
sI2606968
I384
sI2639741
I384
sI2770820
I384
sI2606981
I384
sI2279303
I144
sI2639754
I384
sI3065746
I1020
sI3065747
I1020
sI3065748
I1020
sI3065749
I1020
sI3065750
I1020
sI2639767
I384
sI2974020
I1020
sI2770846
I384
sI3065759
I1020
sI3065760
I1020
sI3065761
I1020
sI3065762
I1020
sI3065763
I1020
sI1210012
I4
sI2770859
I384
sI3065773
I1020
sI3065774
I1020
sI3065775
I1020
sI3065776
I1020
sI2770872
I384
sI3065787
I1020
sI3065788
I1020
sI3065789
I1020
sI542659
I4
sI2770885
I384
sI3065801
I1020
sI3065802
I1020
sI2770898
I384
sI2115542
I64
sI3065815
I1020
sI2770911
I384
sI2148328
I64
sI935922
I24
sI2476019
I144
sI2181114
I64
sI1886209
I64
sI2508805
I144
sI2607111
I384
sI2213900
I64
sI2744664
I384
sI2607124
I384
sI1242798
I4
sI2541591
I144
sI2639897
I384
sI2770976
I384
sI2607137
I384
sI1951781
I64
sI2639910
I384
sI2902055
I384
sI2770989
I384
sI2607150
I384
sI2279472
I144
sI2639923
I384
sI1149961
I4
sI2934841
I384
sI2639936
I384
sI2312258
I144
sI2657291
I384
sI2771015
I384
sI3065928
I1020
sI3065929
I1020
sI3065930
I1020
sI3065931
I1020
sI3065932
I1020
sI2771028
I384
sI3065942
I1020
sI3065943
I1020
sI3065944
I1020
sI3065945
I1020
sI2744677
I384
sI2771041
I384
sI3065956
I1020
sI3065957
I1020
sI3065958
I1020
sI2771054
I384
sI3065970
I1020
sI3065971
I1020
sI1117204
I4
sI2771067
I384
sI575614
I4
sI3065984
I1020
sI2771080
I384
sI2148497
I64
sI2476188
I144
sI1886378
I64
sI968877
I24
sI2508974
I144
sI2690077
I384
sI2214069
I64
sI2607293
I384
sI2640066
I384
sI2246855
I144
sI2607306
I384
sI1951950
I64
sI2640079
I384
sI2771158
I384
sI2607319
I384
sI2279641
I144
sI2328144
I144
sI2803931
I384
sI2640092
I384
sI1149989
I4
sI2919462
I384
sI2803944
I384
sI2640105
I384
sI2312427
I144
sI2771184
I384
sI2803957
I384
sI2771197
I384
sI3066111
I1020
sI3066112
I1020
sI3066113
I1020
sI3066114
I1020
sI2771210
I384
sI3066125
I1020
sI3066126
I1020
sI2803983
I384
sI2771223
I384
sI3066139
I1020
sI2803996
I384
sI2771236
I384
sI2804009
I384
sI2771249
I384
sI2804022
I384
sI608569
I4
sI2914015
I384
sI2804035
I384
sI2476357
I144
sI2181452
I64
sI2635490
I384
sI1886547
I64
sI2509143
I144
sI2214238
I64
sI1001832
I24
sI2247024
I144
sI2607475
I384
sI1952119
I64
sI2640248
I384
sI2673021
I384
sI2607488
I384
sI2279810
I144
sI2640261
I384
sI2329665
I144
sI2673034
I384
sI2804113
I384
sI2640274
I384
sI2312596
I144
sI2673047
I384
sI2771353
I384
sI2804126
I384
sI2673060
I384
sI2771366
I384
sI2771379
I384
sI3066294
I1020
sI3066295
I1020
sI3066296
I1020
sI2668276
I384
sI3099066
I1020
sI3099067
I1020
sI3099068
I1020
sI3099069
I1020
sI2771392
I384
sI3066308
I1020
sI3066309
I1020
sI3099080
I1020
sI3099081
I1020
sI3099082
I1020
sI2602743
I384
sI2771405
I384
sI2116049
I64
sI3066322
I1020
sI3099094
I1020
sI3099095
I1020
sI2771418
I384
sI2804191
I384
sI2799355
I384
sI3099108
I1020
sI2804204
I384
sI2476526
I144
sI2897661
I384
sI641524
I4
sI1886716
I64
sI2509312
I144
sI2247193
I144
sI1952288
I64
sI1034787
I24
sI2607657
I384
sI2640430
I384
sI1985074
I64
sI2673203
I384
sI2640443
I384
sI2312765
I144
sI1133118
I4
sI2673216
I384
sI2804295
I384
sI1133131
I4
sI2673229
I384
sI2187705
I64
sI2930447
I384
sI2804321
I384
sI3066477
I1020
sI3066478
I1020
sI3099249
I1020
sI3099250
I1020
sI3099251
I1020
sI2116218
I64
sI3066491
I1020
sI3099263
I1020
sI3099264
I1020
sI2804360
I384
sI3099277
I1020
sI2804373
I384
sI2476695
I144
sI1886885
I64
sI2509481
I144
sI674479
I4
sI2247362
I144
sI1952457
I64
sI2280148
I144
sI1985243
I64
sI1067742
I24
sI2640612
I384
sI2312934
I144
sI2673385
I384
sI1133300
I4
sI2673398
I384
sI2771704
I384
sI2837250
I384
sI2771717
I384
sI2804490
I384
sI2837263
I384
sI2771730
I384
sI1121584
I4
sI2804503
I384
sI2771743
I384
sI2116387
I64
sI3066660
I1020
sI3099432
I1020
sI3099433
I1020
sI2771756
I384
sI2804529
I384
sI2837302
I384
sI2804542
I384
sI2476864
I144
sI2837315
I384
sI1887054
I64
sI2837328
I384
sI2509650
I144
sI1150693
I4
sI1121233
I4
sI707434
I4
sI1952626
I64
sI2280317
I144
sI1985412
I64
sI2313103
I144
sI1100697
I24
sI2673567
I384
sI2706340
I384
sI2771886
I384
sI2706353
I384
sI2837432
I384
sI2771899
I384
sI2310568
I144
sI2771912
I384
sI2116556
I64
sI2718651
I384
sI2837458
I384
sI2771925
I384
sI2149342
I64
sI2837471
I384
sI3132387
I1020
sI3132388
I1020
sI2477033
I144
sI2837484
I384
sI3132401
I1020
sI2837497
I384
sI2509819
I144
sI3006977
I1020
sI1242967
I4
sI2247700
I144
sI1952795
I64
sI2280486
I144
sI1985581
I64
sI2231476
I144
sI2018367
I64
sI2773212
I384
sI3006990
I1020
sI2706522
I384
sI2772068
I384
sI2804841
I384
sI2772081
I384
sI2116725
I64
sI2804854
I384
sI2837627
I384
sI2772094
I384
sI2804867
I384
sI2149511
I64
sI2837640
I384
sI2804880
I384
sI2477202
I144
sI2837653
I384
sI3132570
I1020
sI2837666
I384
sI3007003
I1020
sI2509988
I144
sI2690246
I384
sI380081
I4
sI2247869
I144
sI1952964
I64
sI1150158
I4
sI1985750
I64
sI2914171
I384
sI2018536
I64
sI1152890
I4
sI2297048
I144
sI2772250
I384
sI2116894
I64
sI2805023
I384
sI2772263
I384
sI2870569
I384
sI2805036
I384
sI2149680
I64
sI2805049
I384
sI2002143
I64
sI2870595
I384
sI2510157
I144
sI2870608
I384
sI2870621
I384
sI2248038
I144
sI413036
I4
sI2280824
I144
sI1150186
I4
sI1985919
I64
sI2018705
I64
sI806299
I24
sI2946970
I384
sI2668445
I384
sI2117063
I64
sI2772432
I384
sI2805205
I384
sI2149849
I64
sI2837978
I384
sI1128357
I4
sI2805218
I384
sI2837991
I384
sI2182635
I64
sI2870764
I384
sI2838004
I384
sI2510326
I144
sI2870777
I384
sI2870790
I384
sI2248207
I144
sI2280993
I144
sI445991
I4
sI2018874
I64
sI2051660
I64
sI839254
I24
sI2608762
I384
sI2150018
I64
sI2608775
I384
sI2805387
I384
sI2477709
I144
sI2838160
I384
sI2608788
I384
sI2838173
I384
sI2608801
I384
sI2749227
I384
sI2608814
I384
sI85683
I4
sI3034805
I1020
sI3034806
I1020
sI3034807
I1020
sI2248376
I144
sI3034809
I1020
sI3034810
I1020
sI2608827
I384
sI3034818
I1020
sI3034819
I1020
sI3034820
I1020
sI3034821
I1020
sI3034822
I1020
sI3034823
I1020
sI2608840
I384
sI2281162
I144
sI3034832
I1020
sI3034833
I1020
sI3034834
I1020
sI3034835
I1020
sI3034836
I1020
sI3034846
I1020
sI3034847
I1020
sI3034848
I1020
sI3034849
I1020
sI478946
I4
sI3034860
I1020
sI3034861
I1020
sI3034862
I1020
sI2051829
I64
sI3034874
I1020
sI3034875
I1020
sI3034888
I1020
sI872209
I24
sI2117401
I64
sI2150187
I64
sI2608944
I384
sI2477878
I144
sI2608957
I384
sI2838342
I384
sI2510664
I144
sI2608970
I384
sI2871115
I384
sI1920854
I64
sI2608983
I384
sI2871128
I384
sI2903901
I384
sI2248545
I144
sI2608996
I384
sI2903914
I384
sI3034987
I1020
sI3034988
I1020
sI3034989
I1020
sI3034990
I1020
sI3034991
I1020
sI3034992
I1020
sI2609009
I384
sI2281331
I144
sI3035001
I1020
sI3035002
I1020
sI3035003
I1020
sI3035004
I1020
sI3035005
I1020
sI3035015
I1020
sI3035016
I1020
sI3035017
I1020
sI3035018
I1020
sI2775422
I384
sI3035030
I1020
sI3035031
I1020
sI511901
I4
sI3035043
I1020
sI3035044
I1020
sI3035057
I1020
sI2117570
I64
sI905164
I24
sI2445261
I144
sI2478047
I144
sI2609126
I384
sI2609139
I384
sI2215928
I64
sI1921023
I64
sI2609152
I384
sI2871297
I384
sI2248714
I144
sI2773004
I384
sI2609165
I384
sI2773017
I384
sI2609178
I384
sI2281500
I144
sI3035170
I1020
sI3035171
I1020
sI3035172
I1020
sI3035173
I1020
sI3035174
I1020
sI3035184
I1020
sI3035185
I1020
sI3035186
I1020
sI3035187
I1020
sI3035198
I1020
sI3035199
I1020
sI3035200
I1020
sI3035212
I1020
sI2773069
I384
sI544856
I4
sI3035226
I1020
sI2773095
I384
sI3039932
I1020
sI2117739
I64
sI1275922
I4
sI2773108
I384
sI2445430
I144
sI2150525
I64
sI938119
I24
sI2478216
I144
sI2183311
I64
sI2511002
I144
sI2690415
I384
sI2609308
I384
sI2642081
I384
sI1921192
I64
sI2609321
I384
sI2642094
I384
sI2713542
I384
sI2248883
I144
sI2773173
I384
sI2609334
I384
sI3039945
I1020
sI2642107
I384
sI2904252
I384
sI2773186
I384
sI2609347
I384
sI2281669
I144
sI2642120
I384
sI1150327
I4
sI2642133
I384
sI3035353
I1020
sI3035354
I1020
sI3035355
I1020
sI3035356
I1020
sI3068125
I1020
sI3068126
I1020
sI3068127
I1020
sI3068128
I1020
sI3068129
I1020
sI1183099
I4
sI3035367
I1020
sI3035368
I1020
sI3035369
I1020
sI3068139
I1020
sI3068140
I1020
sI3068141
I1020
sI3068142
I1020
sI3035381
I1020
sI2773238
I384
sI3068153
I1020
sI3068154
I1020
sI3068155
I1020
sI2085122
I64
sI2773251
I384
sI2777814
I384
sI2297217
I144
sI3068168
I1020
sI2773264
I384
sI577811
I4
sI3068181
I1020
sI2773277
I384
sI2445599
I144
sI2150694
I64
sI2478385
I144
sI1183113
I4
sI971074
I24
sI2511171
I144
sI2216266
I64
sI1921361
I64
sI2609490
I384
sI2642263
I384
sI2609503
I384
sI1954147
I64
sI2642276
I384
sI2773355
I384
sI2609516
I384
sI2281838
I144
sI2642289
I384
sI2642302
I384
sI2773381
I384
sI3035536
I1020
sI3035537
I1020
sI3035538
I1020
sI3068308
I1020
sI3068309
I1020
sI3068310
I1020
sI3068311
I1020
sI3035550
I1020
sI3035551
I1020
sI3068322
I1020
sI3068323
I1020
sI3068324
I1020
sI2085291
I64
sI3035564
I1020
sI3068336
I1020
sI3068337
I1020
sI2773433
I384
sI3068350
I1020
sI2773446
I384
sI2445768
I144
sI610766
I4
sI1117231
I4
sI2478554
I144
sI2362789
I144
sI2183649
I64
sI2180776
I64
sI2511340
I144
sI2216435
I64
sI1921530
I64
sI1004029
I24
sI2249221
I144
sI2609672
I384
sI1954316
I64
sI2642445
I384
sI2609685
I384
sI2282007
I144
sI2642458
I384
sI2806310
I384
sI2642471
I384
sI2773550
I384
sI2806323
I384
sI2773563
I384
sI3035719
I1020
sI2773576
I384
sI3068491
I1020
sI3068492
I1020
sI2806349
I384
sI2085460
I64
sI3035733
I1020
sI3068505
I1020
sI2806362
I384
sI2773602
I384
sI2806375
I384
sI2773615
I384
sI2445937
I144
sI2806388
I384
sI2685033
I384
sI2308202
I144
sI2806401
I384
sI2478723
I144
sI643721
I4
sI2511509
I144
sI1921699
I64
sI2249390
I144
sI1954485
I64
sI1036984
I24
sI2609854
I384
sI2282176
I144
sI2642627
I384
sI2675400
I384
sI2642640
I384
sI2675413
I384
sI2806492
I384
sI2675426
I384
sI2806518
I384
sI2085629
I64
sI3035902
I1020
sI3068674
I1020
sI2806531
I384
sI3101446
I1020
sI3101447
I1020
sI3101448
I1020
sI2118415
I64
sI2806544
I384
sI3101460
I1020
sI3101461
I1020
sI2446106
I144
sI2806557
I384
sI3101474
I1020
sI2806570
I384
sI2478892
I144
sI2747563
I384
sI2511678
I144
sI676676
I4
sI1921868
I64
sI2249559
I144
sI1954654
I64
sI1987440
I64
sI1069939
I24
sI2642809
I384
sI2675582
I384
sI2675595
I384
sI2773901
I384
sI2773914
I384
sI2806687
I384
sI2085798
I64
sI2773927
I384
sI2806700
I384
sI2773940
I384
sI2118584
I64
sI3068857
I1020
sI3101629
I1020
sI3101630
I1020
sI2773953
I384
sI2446275
I144
sI2806726
I384
sI3101643
I1020
sI2806739
I384
sI2479061
I144
sI2511847
I144
sI1922037
I64
sI1954823
I64
sI2282514
I144
sI1987609
I64
sI1102894
I24
sI2675764
I384
sI2774083
I384
sI2839629
I384
sI2085967
I64
sI2774096
I384
sI2774109
I384
sI2118753
I64
sI2839655
I384
sI2774122
I384
sI3101812
I1020
sI2479230
I144
sI2839681
I384
sI2839694
I384
sI3007341
I1020
sI2512016
I144
sI1922206
I64
sI2249897
I144
sI3040114
I1020
sI1954992
I64
sI2282683
I144
sI1987778
I64
sI2708719
I384
sI2086136
I64
sI2774265
I384
sI3040127
I1020
sI2297386
I144
sI2807038
I384
sI2774278
I384
sI2118922
I64
sI2807051
I384
sI2839824
I384
sI2774291
I384
sI2807064
I384
sI2151708
I64
sI2839837
I384
sI2807077
I384
sI2479399
I144
sI2839850
I384
sI1183282
I4
sI3134767
I1020
sI2980062
I1020
sI2839863
I384
sI2512185
I144
sI2947295
I384
sI382278
I4
sI2250066
I144
sI1955161
I64
sI1150524
I4
sI1987947
I64
sI775541
I24
sI2020733
I64
sI2947308
I384
sI2035267
I64
sI2774447
I384
sI2119091
I64
sI2807220
I384
sI2774460
I384
sI2446782
I144
sI2807233
I384
sI2151877
I64
sI2807246
I384
sI2842034
I384
sI1183310
I4
sI3003864
I1020
sI3003865
I1020
sI3003866
I1020
sI3003867
I1020
sI3003868
I1020
sI3003869
I1020
sI3003870
I1020
sI2512354
I144
sI3003877
I1020
sI3003878
I1020
sI3003879
I1020
sI3003880
I1020
sI3003881
I1020
sI3003882
I1020
sI3003883
I1020
sI3003891
I1020
sI3003892
I1020
sI3003893
I1020
sI3003894
I1020
sI3003895
I1020
sI3003896
I1020
sI2250235
I144
sI415233
I4
sI3003906
I1020
sI3003907
I1020
sI3003908
I1020
sI3003909
I1020
sI2283021
I144
sI3003919
I1020
sI3003920
I1020
sI3003921
I1020
sI3003922
I1020
sI1988116
I64
sI3003933
I1020
sI3003934
I1020
sI3003935
I1020
sI2020902
I64
sI3003947
I1020
sI3003948
I1020
sI808496
I24
sI3003961
I1020
sI2086474
I64
sI2119260
I64
sI2774629
I384
sI2446951
I144
sI2807402
I384
sI2152046
I64
sI2840175
I384
sI2308371
I144
sI2807415
I384
sI2479737
I144
sI2840188
I384
sI2872961
I384
sI1889927
I64
sI2840201
I384
sI2512523
I144
sI3004046
I1020
sI3004047
I1020
sI3004048
I1020
sI3004049
I1020
sI3004050
I1020
sI3004051
I1020
sI3004052
I1020
sI2872987
I384
sI3004060
I1020
sI3004061
I1020
sI3004062
I1020
sI3004063
I1020
sI3004064
I1020
sI3004065
I1020
sI2250404
I144
sI3004074
I1020
sI3004075
I1020
sI3004076
I1020
sI3004077
I1020
sI3004078
I1020
sI2283190
I144
sI3004088
I1020
sI3004089
I1020
sI3004090
I1020
sI3004091
I1020
sI448188
I4
sI3004102
I1020
sI3004103
I1020
sI3004104
I1020
sI2021071
I64
sI3004116
I1020
sI3004117
I1020
sI3004130
I1020
sI841451
I24
sI2086643
I64
sI2447120
I144
sI2152215
I64
sI2807584
I384
sI2742051
I384
sI2840357
I384
sI2185001
I64
sI1890096
I64
sI2840370
I384
sI1333045
I4
sI2742077
I384
sI1333058
I4
sI3004229
I1020
sI3004230
I1020
sI3004231
I1020
sI3004232
I1020
sI1627977
I1020
sI3004234
I1020
sI2250573
I144
sI3004243
I1020
sI3004244
I1020
sI3004245
I1020
sI3004246
I1020
sI3004247
I1020
sI2283359
I144
sI3004257
I1020
sI3004258
I1020
sI3004259
I1020
sI3004260
I1020
sI3004271
I1020
sI3004272
I1020
sI3004273
I1020
sI481143
I4
sI2182804
I64
sI3004285
I1020
sI3004286
I1020
sI2054026
I64
sI3004299
I1020
sI2742168
I384
sI2086812
I64
sI2742181
I384
sI874406
I24
sI2414503
I144
sI2119598
I64
sI2302963
I144
sI2447289
I144
sI2152384
I64
sI2611141
I384
sI2480075
I144
sI2185170
I64
sI1890265
I64
sI2840539
I384
sI2512861
I144
sI2611167
I384
sI2873312
I384
sI2742246
I384
sI1333227
I4
sI2611180
I384
sI2873325
I384
sI2250742
I144
sI2611193
I384
sI3004412
I1020
sI3004413
I1020
sI3004414
I1020
sI3004415
I1020
sI3037184
I1020
sI3037185
I1020
sI3037186
I1020
sI3037187
I1020
sI3037188
I1020
sI3037189
I1020
sI2611206
I384
sI2283528
I144
sI3004426
I1020
sI3004427
I1020
sI3004428
I1020
sI3004429
I1020
sI3037198
I1020
sI3037199
I1020
sI3037200
I1020
sI3037201
I1020
sI3037202
I1020
sI3004440
I1020
sI3004441
I1020
sI3004442
I1020
sI3037212
I1020
sI3037213
I1020
sI3037214
I1020
sI3037215
I1020
sI3004454
I1020
sI2742311
I384
sI3037226
I1020
sI3037227
I1020
sI3037228
I1020
sI514098
I4
sI3004468
I1020
sI3037240
I1020
sI3037241
I1020
sI2742337
I384
sI2086981
I64
sI3037254
I1020
sI2742350
I384
sI2414672
I144
sI3034808
I1020
sI2119767
I64
sI907361
I24
sI2447458
I144
sI2480244
I144
sI2185339
I64
sI1890434
I64
sI2513030
I144
sI2611336
I384
sI2742415
I384
sI1923220
I64
sI2611349
I384
sI2873494
I384
sI2250911
I144
sI2611362
I384
sI2742441
I384
sI2611375
I384
sI2283697
I144
sI3004595
I1020
sI3004596
I1020
sI3004597
I1020
sI3004598
I1020
sI3037367
I1020
sI3037368
I1020
sI3037369
I1020
sI3037370
I1020
sI3037371
I1020
sI3004609
I1020
sI3004610
I1020
sI3004611
I1020
sI3037381
I1020
sI3037382
I1020
sI3037383
I1020
sI3037384
I1020
sI3004623
I1020
sI3004624
I1020
sI3037395
I1020
sI3037396
I1020
sI3037397
I1020
sI3004637
I1020
sI3037409
I1020
sI3037410
I1020
sI2742506
I384
sI2941991
I384
sI547053
I4
sI3037423
I1020
sI2742519
I384
sI2414841
I144
sI2119936
I64
sI2447627
I144
sI2152722
I64
sI940316
I24
sI2480413
I144
sI2185508
I64
sI1890603
I64
sI2611505
I384
sI2218294
I64
sI1923389
I64
sI2611518
I384
sI2251080
I144
sI2775370
I384
sI2611531
I384
sI2906449
I384
sI2742610
I384
sI2657473
I384
sI2775383
I384
sI2611544
I384
sI2283866
I144
sI2742623
I384
sI3004778
I1020
sI3004779
I1020
sI3004780
I1020
sI3037550
I1020
sI3037551
I1020
sI3037552
I1020
sI2775409
I384
sI3004792
I1020
sI3004793
I1020
sI3037564
I1020
sI3037565
I1020
sI3037566
I1020
sI2947477
I384
sI3004806
I1020
sI3037578
I1020
sI2775435
I384
sI2742675
I384
sI3037592
I1020
sI2742688
I384
sI2415010
I144
sI2775461
I384
sI580008
I4
sI2775474
I384
sI2447796
I144
sI2152891
I64
sI2480582
I144
sI2363127
I144
sI1890772
I64
sI973271
I24
sI2218463
I64
sI1923558
I64
sI2611687
I384
sI2985007
I1020
sI2644460
I384
sI2251249
I144
sI2611700
I384
sI2644473
I384
sI2775552
I384
sI2611713
I384
sI2284035
I144
sI2644486
I384
sI2644499
I384
sI2775578
I384
sI2659852
I384
sI3004961
I1020
sI3004962
I1020
sI3037733
I1020
sI3037734
I1020
sI3037735
I1020
sI3070505
I1020
sI3070506
I1020
sI3070507
I1020
sI3070508
I1020
sI3004975
I1020
sI3037747
I1020
sI3037748
I1020
sI3070519
I1020
sI3070520
I1020
sI3070521
I1020
sI2087488
I64
sI2775617
I384
sI3070533
I1020
sI3070534
I1020
sI2415179
I144
sI2775630
I384
sI3070547
I1020
sI2775643
I384
sI2447965
I144
sI612963
I4
sI2480751
I144
sI2185846
I64
sI1890941
I64
sI2218632
I64
sI1923727
I64
sI1006226
I24
sI2611869
I384
sI1956513
I64
sI2644642
I384
sI2611882
I384
sI2284204
I144
sI2644655
I384
sI2742961
I384
sI2644668
I384
sI2742974
I384
sI2775747
I384
sI2742987
I384
sI2602028
I384
sI2775760
I384
sI2663544
I384
sI1161678
I4
sI2743000
I384
sI3037916
I1020
sI2775773
I384
sI3070688
I1020
sI3070689
I1020
sI3070690
I1020
sI2743013
I384
sI2087657
I64
sI2775786
I384
sI3070702
I1020
sI3070703
I1020
sI2743026
I384
sI2415348
I144
sI2775799
I384
sI3070716
I1020
sI2775812
I384
sI2448134
I144
sI2480920
I144
sI645918
I4
sI1891110
I64
sI1923896
I64
sI2251587
I144
sI1956682
I64
sI1039181
I24
sI2330341
I144
sI2284373
I144
sI2644824
I384
sI2644837
I384
sI2743143
I384
sI2182973
I64
sI2808689
I384
sI2743156
I384
sI2743169
I384
sI2808715
I384
sI2743182
I384
sI2087826
I64
sI3038099
I1020
sI3070871
I1020
sI3070872
I1020
sI2743195
I384
sI3070885
I1020
sI2448303
I144
sI2808754
I384
sI2808767
I384
sI2481089
I144
sI1891279
I64
sI1924065
I64
sI2251756
I144
sI1956851
I64
sI2284542
I144
sI1072136
I24
sI2645006
I384
sI2677779
I384
sI1117011
I4
sI2743325
I384
sI2677792
I384
sI2776098
I384
sI3009031
I1020
sI2743338
I384
sI2776111
I384
sI2808884
I384
sI2743351
I384
sI2087995
I64
sI2776124
I384
sI2808897
I384
sI2743364
I384
sI2776137
I384
sI2120781
I64
sI3071054
I1020
sI3103826
I1020
sI3103827
I1020
sI2776150
I384
sI2448472
I144
sI2808923
I384
sI3103840
I1020
sI2808936
I384
sI2481258
I144
sI1891448
I64
sI1924234
I64
sI711828
I4
sI1957020
I64
sI1989806
I64
sI2811081
I384
sI1105091
I24
sI2677961
I384
sI2743507
I384
sI2776280
I384
sI2743520
I384
sI2942160
I384
sI2088164
I64
sI2776293
I384
sI2743533
I384
sI2415855
I144
sI2776306
I384
sI2120950
I64
sI2972923
I1020
sI2972924
I1020
sI2972925
I1020
sI2972926
I1020
sI2776319
I384
sI2972928
I1020
sI2972929
I1020
sI2972930
I1020
sI2972936
I1020
sI3104009
I1020
sI2972938
I1020
sI2972939
I1020
sI2972940
I1020
sI2972941
I1020
sI2972942
I1020
sI2972943
I1020
sI2481427
I144
sI2972950
I1020
sI2972951
I1020
sI2972952
I1020
sI2972953
I1020
sI2972954
I1020
sI2972955
I1020
sI2972956
I1020
sI2972964
I1020
sI2972965
I1020
sI2972966
I1020
sI2972967
I1020
sI2972968
I1020
sI2972969
I1020
sI2972978
I1020
sI1924403
I64
sI2972980
I1020
sI2972981
I1020
sI2972982
I1020
sI2252094
I144
sI2972992
I1020
sI2972993
I1020
sI2972994
I1020
sI2972995
I1020
sI1957189
I64
sI2973006
I1020
sI744783
I24
sI2973008
I1020
sI3073251
I1020
sI1989975
I64
sI2973020
I1020
sI2973021
I1020
sI2973034
I1020
sI3035029
I1020
sI2743689
I384
sI2088333
I64
sI2776462
I384
sI2809235
I384
sI2743702
I384
sI2416024
I144
sI2776475
I384
sI2121119
I64
sI2809248
I384
sI1117024
I4
sI2842021
I384
sI2776488
I384
sI2448810
I144
sI2809261
I384
sI2973105
I1020
sI2973106
I1020
sI2973107
I1020
sI2973108
I1020
sI2973109
I1020
sI2973110
I1020
sI2973111
I1020
sI1859000
I64
sI2809274
I384
sI2481596
I144
sI2973119
I1020
sI2973120
I1020
sI2973121
I1020
sI2973122
I1020
sI2973123
I1020
sI2973124
I1020
sI2973125
I1020
sI2842060
I384
sI2973133
I1020
sI2973134
I1020
sI2973135
I1020
sI2973136
I1020
sI2973137
I1020
sI2973138
I1020
sI384475
I4
sI2973148
I1020
sI2973149
I1020
sI2973150
I1020
sI2973151
I1020
sI2252263
I144
sI2973161
I1020
sI2973162
I1020
sI2973163
I1020
sI2973164
I1020
sI1957358
I64
sI2973175
I1020
sI2973176
I1020
sI2973177
I1020
sI1990144
I64
sI2973189
I1020
sI2973190
I1020
sI777738
I24
sI2973203
I1020
sI2718300
I384
sI2396082
I144
sI2743871
I384
sI2416193
I144
sI2776644
I384
sI2121288
I64
sI2809417
I384
sI2776657
I384
sI2809430
I384
sI1302104
I4
sI1302105
I4
sI2154074
I64
sI2204943
I64
sI1859169
I64
sI2809443
I384
sI1302117
I4
sI1302118
I4
sI2973288
I1020
sI2973289
I1020
sI2973290
I1020
sI2973291
I1020
sI2973292
I1020
sI2973293
I1020
sI2973294
I1020
sI1302131
I4
sI2973302
I1020
sI2973303
I1020
sI2973304
I1020
sI2973305
I1020
sI2973306
I1020
sI2973307
I1020
sI2973316
I1020
sI2973317
I1020
sI2973318
I1020
sI2973319
I1020
sI2973320
I1020
sI2252432
I144
sI2973330
I1020
sI2973331
I1020
sI2973332
I1020
sI2973333
I1020
sI417430
I4
sI2973344
I1020
sI2973345
I1020
sI2973346
I1020
sI1990313
I64
sI2973358
I1020
sI2973359
I1020
sI2023099
I64
sI2973372
I1020
sI810693
I24
sI2237729
I144
sI2088671
I64
sI2416362
I144
sI2121457
I64
sI2685566
I384
sI2776826
I384
sI2449148
I144
sI2809599
I384
sI2154243
I64
sI2842372
I384
sI1859338
I64
sI2809612
I384
sI1302286
I4
sI1302287
I4
sI2842385
I384
sI1302300
I4
sI2842398
I384
sI2973471
I1020
sI2973472
I1020
sI2973473
I1020
sI57122
I4
sI3006243
I1020
sI3006244
I1020
sI3006245
I1020
sI3006246
I1020
sI3006247
I1020
sI3006248
I1020
sI3006249
I1020
sI2973485
I1020
sI2973486
I1020
sI2973487
I1020
sI2973488
I1020
sI3006257
I1020
sI3006258
I1020
sI3006259
I1020
sI3006260
I1020
sI3006261
I1020
sI3006262
I1020
sI2252601
I144
sI2973499
I1020
sI2973500
I1020
sI2973501
I1020
sI2973502
I1020
sI3006271
I1020
sI3006272
I1020
sI3006273
I1020
sI3006274
I1020
sI3006275
I1020
sI2973513
I1020
sI2973514
I1020
sI2973515
I1020
sI3006285
I1020
sI3006286
I1020
sI3006287
I1020
sI3006288
I1020
sI450385
I4
sI2973527
I1020
sI2973528
I1020
sI3006299
I1020
sI3006300
I1020
sI3006301
I1020
sI2023268
I64
sI2973541
I1020
sI3006313
I1020
sI3006314
I1020
sI3006327
I1020
sI843648
I24
sI2383745
I144
sI2088840
I64
sI2416531
I144
sI1123653
I4
sI2449317
I144
sI2154412
I64
sI1859507
I64
sI2809781
I384
sI2482103
I144
sI2842554
I384
sI1892293
I64
sI2842567
I384
sI2973654
I1020
sI2973655
I1020
sI2973656
I1020
sI2973657
I1020
sI3006426
I1020
sI3006427
I1020
sI3006428
I1020
sI3006429
I1020
sI3006430
I1020
sI3006431
I1020
sI2252770
I144
sI2973668
I1020
sI2973669
I1020
sI2973670
I1020
sI2973671
I1020
sI3006440
I1020
sI3006441
I1020
sI3006442
I1020
sI3006443
I1020
sI3006444
I1020
sI2973682
I1020
sI2973683
I1020
sI2973684
I1020
sI3006454
I1020
sI3006455
I1020
sI3006456
I1020
sI3006457
I1020
sI2772991
I384
sI2973696
I1020
sI2973697
I1020
sI3006468
I1020
sI3006469
I1020
sI3006470
I1020
sI483340
I4
sI2973710
I1020
sI3006482
I1020
sI3006483
I1020
sI3006496
I1020
sI2383914
I144
sI2089009
I64
sI876603
I24
sI2416700
I144
sI2121795
I64
sI2856308
I384
sI2449486
I144
sI2154581
I64
sI1859676
I64
sI2187367
I64
sI1892462
I64
sI2842736
I384
sI1117048
I4
sI2875509
I384
sI2744443
I384
sI1335424
I4
sI2875522
I384
sI2252939
I144
sI2973837
I1020
sI2973838
I1020
sI2973839
I1020
sI2973840
I1020
sI3006609
I1020
sI3006610
I1020
sI3006611
I1020
sI3006612
I1020
sI2744469
I384
sI2973851
I1020
sI2973852
I1020
sI2973853
I1020
sI3006623
I1020
sI3006624
I1020
sI3006625
I1020
sI3006626
I1020
sI2973865
I1020
sI2973866
I1020
sI3128007
I1020
sI3006637
I1020
sI3006638
I1020
sI3006639
I1020
sI2973879
I1020
sI3006651
I1020
sI3006652
I1020
sI516295
I4
sI3006665
I1020
sI2384083
I144
sI2744534
I384
sI2089178
I64
sI2744547
I384
sI2416869
I144
sI2121964
I64
sI909558
I24
sI2449655
I144
sI1859845
I64
sI2482441
I144
sI2187536
I64
sI1892631
I64
sI2613533
I384
sI2744612
I384
sI2718833
I384
sI2613546
I384
sI2875691
I384
sI2773043
I384
sI2253108
I144
sI2613559
I384
sI2744638
I384
sI2613572
I384
sI2974021
I1020
sI2974022
I1020
sI3006792
I1020
sI3006793
I1020
sI3006794
I1020
sI3006795
I1020
sI3039564
I1020
sI3039565
I1020
sI3039566
I1020
sI3039567
I1020
sI3039568
I1020
sI2974034
I1020
sI2974035
I1020
sI3006806
I1020
sI3006807
I1020
sI3006808
I1020
sI3039578
I1020
sI3039579
I1020
sI3039580
I1020
sI3039581
I1020
sI2974048
I1020
sI3006820
I1020
sI3006821
I1020
sI3039592
I1020
sI3039593
I1020
sI3039594
I1020
sI2056561
I64
sI3006834
I1020
sI3039606
I1020
sI3039607
I1020
sI2384252
I144
sI2744703
I384
sI2773056
I384
sI549250
I4
sI3039620
I1020
sI2744716
I384
sI2417038
I144
sI2122133
I64
sI2449824
I144
sI2154919
I64
sI1860014
I64
sI942513
I24
sI2482610
I144
sI1178355
I4
sI1178356
I4
sI1892800
I64
sI2613702
I384
sI1179254
I4
sI3035213
I1020
sI1925586
I64
sI2613715
I384
sI2253277
I144
sI2613728
I384
sI2744807
I384
sI2613741
I384
sI2744820
I384
sI2974203
I1020
sI2974204
I1020
sI3006975
I1020
sI3006976
I1020
sI2744833
I384
sI3039747
I1020
sI3039748
I1020
sI3039749
I1020
sI3039750
I1020
sI2947841
I384
sI2974217
I1020
sI3006989
I1020
sI2744846
I384
sI3039761
I1020
sI3039762
I1020
sI3039763
I1020
sI2056730
I64
sI2744859
I384
sI2773082
I384
sI3039775
I1020
sI3039776
I1020
sI2396251
I144
sI2384421
I144
sI2744872
I384
sI3039789
I1020
sI2744885
I384
sI2417207
I144
sI582205
I4
sI2449993
I144
sI2685709
I384
sI2155088
I64
sI1860183
I64
sI2482779
I144
sI1892969
I64
sI975468
I24
sI2220660
I64
sI1925755
I64
sI2613884
I384
sI2253446
I144
sI2613897
I384
sI2777749
I384
sI2613910
I384
sI2777775
I384
sI2974386
I1020
sI3007158
I1020
sI3007159
I1020
sI3039930
I1020
sI3039931
I1020
sI2777788
I384
sI2663882
I384
sI2056899
I64
sI3007172
I1020
sI3039944
I1020
sI2777801
I384
sI3039958
I1020
sI2417376
I144
sI2777827
I384
sI2777840
I384
sI2450162
I144
sI2893267
I384
sI615160
I4
sI1860352
I64
sI2482948
I144
sI2188043
I64
sI1893138
I64
sI2220829
I64
sI1925924
I64
sI1008423
I24
sI2253615
I144
sI2614066
I384
sI2202746
I64
sI2646839
I384
sI2614079
I384
sI2646852
I384
sI2745158
I384
sI2725398
I384
sI2646865
I384
sI2745171
I384
sI2777944
I384
sI2745184
I384
sI2777957
I384
sI2057068
I64
sI2745197
I384
sI3040113
I1020
sI2777970
I384
sI3072885
I1020
sI3072886
I1020
sI3072887
I1020
sI2745210
I384
sI2089854
I64
sI2777983
I384
sI3072899
I1020
sI3072900
I1020
sI2745223
I384
sI2417545
I144
sI2777996
I384
sI3072913
I1020
sI2303470
I144
sI2778009
I384
sI2450331
I144
sI1860521
I64
sI2483117
I144
sI1893307
I64
sI2216097
I64
sI1926093
I64
sI1958879
I64
sI1041378
I24
sI2614248
I384
sI1713660
I1020
sI2647021
I384
sI2647034
I384
sI2745340
I384
sI2745353
I384
sI2057237
I64
sI2745366
I384
sI2941978
I384
sI2384928
I144
sI2745379
I384
sI2090023
I64
sI3040296
I1020
sI3073068
I1020
sI3073069
I1020
sI2745392
I384
sI2942004
I384
sI3073082
I1020
sI1827904
I1020
sI2942017
I384
sI2450500
I144
sI2942030
I384
sI1860690
I64
sI2483286
I144
sI2942043
I384
sI1893476
I64
sI2942056
I384
sI681070
I4
sI2942069
I384
sI1926262
I64
sI2253953
I144
sI2942082
I384
sI1959048
I64
sI2942095
I384
sI1074333
I24
sI3128176
I1020
sI2647203
I384
sI2745522
I384
sI2778295
I384
sI2057406
I64
sI2745535
I384
sI2778308
I384
sI2385097
I144
sI2745548
I384
sI2090192
I64
sI2778321
I384
sI2811094
I384
sI2745561
I384
sI2417883
I144
sI2942173
I384
sI2778334
I384
sI2811107
I384
sI2942186
I384
sI2778347
I384
sI2450669
I144
sI2811120
I384
sI2942199
I384
sI2811133
I384
sI2483455
I144
sI2942212
I384
sI1893645
I64
sI2942225
I384
sI2942238
I384
sI1926431
I64
sI714025
I4
sI2942251
I384
sI1959217
I64
sI2942264
I384
sI1107288
I24
sI2680158
I384
sI2745704
I384
sI2778477
I384
sI2385266
I144
sI2745717
I384
sI2773225
I384
sI2090361
I64
sI2778490
I384
sI1271163
I4
sI1271164
I4
sI1271165
I4
sI2745730
I384
sI2942342
I384
sI2778503
I384
sI1271176
I4
sI1271177
I4
sI1271178
I4
sI2123147
I64
sI2942355
I384
sI2778516
I384
sI1271190
I4
sI1271191
I4
sI3106206
I1020
sI2942368
I384
sI1271204
I4
sI2483624
I144
sI1178524
I4
sI2942381
I384
sI2942537
I384
sI2942394
I384
sI3035382
I1020
sI2942407
I384
sI1926600
I64
sI2975309
I1020
sI2393716
I144
sI2254291
I144
sI2942420
I384
sI1959386
I64
sI2942433
I384
sI746980
I24
sI1992172
I64
sI1178537
I4
sI2948010
I384
sI2942550
I384
sI2057744
I64
sI3035395
I1020
sI2718638
I384
sI2385435
I144
sI2745886
I384
sI2090530
I64
sI2778659
I384
sI2811432
I384
sI2745899
I384
sI2418221
I144
sI2778672
I384
sI1271345
I4
sI1271346
I4
sI1271347
I4
sI2123316
I64
sI2811445
I384
sI2942524
I384
sI2778685
I384
sI2451007
I144
sI1271360
I4
sI2811458
I384
sI1178550
I4
sI2975302
I1020
sI2975303
I1020
sI2975304
I1020
sI2975305
I1020
sI2975306
I1020
sI2975307
I1020
sI2975308
I1020
sI1271373
I4
sI2811471
I384
sI2483793
I144
sI2942563
I384
sI2975316
I1020
sI2975317
I1020
sI2975318
I1020
sI2975319
I1020
sI2975320
I1020
sI2975321
I1020
sI2975322
I1020
sI2975330
I1020
sI2975331
I1020
sI2975332
I1020
sI2975333
I1020
sI2975334
I1020
sI2975335
I1020
sI386672
I4
sI2975345
I1020
sI2975346
I1020
sI2975347
I1020
sI2975348
I1020
sI2254460
I144
sI2942589
I384
sI2975358
I1020
sI2975359
I1020
sI2975360
I1020
sI2975361
I1020
sI1959555
I64
sI2942602
I384
sI2975372
I1020
sI2975373
I1020
sI2975374
I1020
sI1992341
I64
sI2975386
I1020
sI2975387
I1020
sI779935
I24
sI2975344
I1020
sI2975400
I1020
sI2718664
I384
sI2664051
I384
sI2057913
I64
sI2385604
I144
sI2746068
I384
sI2418390
I144
sI2778841
I384
sI2123485
I64
sI2811614
I384
sI2778854
I384
sI1271528
I4
sI1271529
I4
sI2811627
I384
sI1178578
I4
sI2942706
I384
sI1861366
I64
sI2811640
I384
sI2975485
I1020
sI2975486
I1020
sI2975487
I1020
sI2975488
I1020
sI2975489
I1020
sI2975490
I1020
sI2975491
I1020
sI2975499
I1020
sI2975500
I1020
sI2975501
I1020
sI2975502
I1020
sI2975503
I1020
sI2975504
I1020
sI2975513
I1020
sI2975514
I1020
sI2975515
I1020
sI2975516
I1020
sI2975517
I1020
sI2696837
I384
sI2254629
I144
sI2942758
I384
sI2975527
I1020
sI2975528
I1020
sI2975529
I1020
sI2975530
I1020
sI419627
I4
sI2942771
I384
sI2975541
I1020
sI2975542
I1020
sI2975543
I1020
sI1992510
I64
sI2975555
I1020
sI2975556
I1020
sI1975948
I64
sI2975569
I1020
sI812890
I24
sI2352987
I144
sI2058082
I64
sI2385773
I144
sI2090868
I64
sI2183142
I64
sI2418559
I144
sI2123654
I64
sI2303639
I144
sI2779023
I384
sI2713490
I384
sI2811796
I384
sI2827929
I384
sI2156440
I64
sI2844569
I384
sI1271711
I4
sI2811809
I384
sI1304483
I4
sI1304484
I4
sI2844582
I384
sI2942888
I384
sI1304497
I4
sI2844595
I384
sI2975668
I1020
sI2975669
I1020
sI2975670
I1020
sI2975671
I1020
sI2975672
I1020
sI2975673
I1020
sI2688049
I384
sI2975682
I1020
sI2975683
I1020
sI2975684
I1020
sI2975685
I1020
sI2975686
I1020
sI2254798
I144
sI2942927
I384
sI2975696
I1020
sI2975697
I1020
sI2975698
I1020
sI2975699
I1020
sI2942940
I384
sI2975710
I1020
sI2975711
I1020
sI2975712
I1020
sI452582
I4
sI2975724
I1020
sI2975725
I1020
sI1121415
I4
sI2025465
I64
sI2975738
I1020
sI2353156
I144
sI2713607
I384
sI2058251
I64
sI2713620
I384
sI845845
I24
sI2385942
I144
sI2091037
I64
sI2418728
I144
sI2451514
I144
sI2156609
I64
sI2713672
I384
sI2811978
I384
sI2484300
I144
sI2844751
I384
sI2942576
I384
sI1304666
I4
sI2844764
I384
sI2943070
I384
sI2713698
I384
sI2943083
I384
sI2975852
I1020
sI2975853
I1020
sI2975854
I1020
sI2713711
I384
sI3008624
I1020
sI3008625
I1020
sI3008626
I1020
sI3008627
I1020
sI3008628
I1020
sI2254967
I144
sI2943096
I384
sI2975865
I1020
sI2975866
I1020
sI2975867
I1020
sI2713724
I384
sI3008637
I1020
sI3008638
I1020
sI3008639
I1020
sI3008640
I1020
sI3008641
I1020
sI2943109
I384
sI2975879
I1020
sI2975880
I1020
sI2975881
I1020
sI3008651
I1020
sI3008652
I1020
sI3008653
I1020
sI3008654
I1020
sI2178072
I64
sI2975893
I1020
sI2713750
I384
sI3008665
I1020
sI3008666
I1020
sI3008667
I1020
sI485537
I4
sI2713763
I384
sI3008679
I1020
sI3008680
I1020
sI2353325
I144
sI2713776
I384
sI2058420
I64
sI3008693
I1020
sI2713789
I384
sI2386111
I144
sI2091206
I64
sI878800
I24
sI2418897
I144
sI2123992
I64
sI2451683
I144
sI2156778
I64
sI1861873
I64
sI3008623
I1020
sI2484469
I144
sI1894659
I64
sI2844933
I384
sI2713867
I384
sI2943252
I384
sI2713880
I384
sI2255136
I144
sI2943265
I384
sI2976034
I1020
sI2976035
I1020
sI2976036
I1020
sI2713893
I384
sI3008806
I1020
sI3008807
I1020
sI3008808
I1020
sI3008809
I1020
sI3008810
I1020
sI2943278
I384
sI2976048
I1020
sI2976049
I1020
sI2976050
I1020
sI3008820
I1020
sI3008821
I1020
sI3008822
I1020
sI3008823
I1020
sI2976062
I1020
sI2976063
I1020
sI3008834
I1020
sI3008835
I1020
sI3008836
I1020
sI2713932
I384
sI3008848
I1020
sI3008849
I1020
sI784329
I24
sI2353494
I144
sI2713945
I384
sI518492
I4
sI3008862
I1020
sI2713958
I384
sI2386280
I144
sI2773394
I384
sI2091375
I64
sI2451176
I144
sI2419066
I144
sI2124161
I64
sI911755
I24
sI2451852
I144
sI1862042
I64
sI2189733
I64
sI1894828
I64
sI2746809
I384
sI2773407
I384
sI1271542
I4
sI2255305
I144
sI2943434
I384
sI2746835
I384
sI2943447
I384
sI2976217
I1020
sI2976218
I1020
sI2976219
I1020
sI3008989
I1020
sI3008990
I1020
sI3008991
I1020
sI2746848
I384
sI2976231
I1020
sI2976232
I1020
sI3009003
I1020
sI3009004
I1020
sI3009005
I1020
sI2976245
I1020
sI3009017
I1020
sI3009018
I1020
sI2942719
I384
sI2746887
I384
sI2773420
I384
sI2292823
I144
sI2386449
I144
sI2746900
I384
sI551447
I4
sI2746913
I384
sI2419235
I144
sI2124330
I64
sI2452021
I144
sI1178719
I4
sI2157116
I64
sI1862211
I64
sI944710
I24
sI2942732
I384
sI2189902
I64
sI1894997
I64
sI2615899
I384
sI2615912
I384
sI2714218
I384
sI2255474
I144
sI2615925
I384
sI2714231
I384
sI2747004
I384
sI2943616
I384
sI2615938
I384
sI2714244
I384
sI2747017
I384
sI2976400
I1020
sI2976401
I1020
sI3009172
I1020
sI3009173
I1020
sI3009174
I1020
sI2942745
I384
sI3041944
I1020
sI3041945
I1020
sI3041946
I1020
sI3041947
I1020
sI2714270
I384
sI3009186
I1020
sI3009187
I1020
sI3041958
I1020
sI3041959
I1020
sI3041960
I1020
sI2714283
I384
sI2058927
I64
sI2747056
I384
sI3041972
I1020
sI3041973
I1020
sI2714296
I384
sI2386618
I144
sI2747069
I384
sI3041986
I1020
sI2747082
I384
sI2419404
I144
sI584402
I4
sI2452190
I144
sI1178747
I4
sI2157285
I64
sI1862380
I64
sI1895166
I64
sI977665
I24
sI1927952
I64
sI2616081
I384
sI2697006
I384
sI2255643
I144
sI2616094
I384
sI2714400
I384
sI2616107
I384
sI2714413
I384
sI2714426
I384
sI2664246
I384
sI2976583
I1020
sI3009355
I1020
sI3009356
I1020
sI3042127
I1020
sI3042128
I1020
sI2354001
I144
sI2714452
I384
sI2059096
I64
sI3009369
I1020
sI3042141
I1020
sI3042142
I1020
sI2714465
I384
sI2697019
I384
sI3042155
I1020
sI2419573
I144
sI2452359
I144
sI1862549
I64
sI2190240
I64
sI1895335
I64
sI2223026
I64
sI1928121
I64
sI1010620
I24
sI2255812
I144
sI2616263
I384
sI2616276
I384
sI2714582
I384
sI2747355
I384
sI2714595
I384
sI2747368
I384
sI2780141
I384
sI2714608
I384
sI2747381
I384
sI2354170
I144
sI2714621
I384
sI2059265
I64
sI2747394
I384
sI3042310
I1020
sI2780167
I384
sI2714634
I384
sI2386956
I144
sI2747407
I384
sI2780180
I384
sI2747420
I384
sI2419742
I144
sI2780193
I384
sI2780206
I384
sI2452528
I144
sI1862718
I64
sI650312
I4
sI1895504
I64
sI1928290
I64
sI2255981
I144
sI1043575
I24
sI2616445
I384
sI2649218
I384
sI2178241
I64
sI2714764
I384
sI2649231
I384
sI2747537
I384
sI2714777
I384
sI1240222
I4
sI1240223
I4
sI1240224
I4
sI1240225
I4
sI2354339
I144
sI2714790
I384
sI2059434
I64
sI1240235
I4
sI1240236
I4
sI1240237
I4
sI1240238
I4
sI2714803
I384
sI2747576
I384
sI1240249
I4
sI1240250
I4
sI1240251
I4
sI2092220
I64
sI3042493
I1020
sI3075265
I1020
sI3075266
I1020
sI2747589
I384
sI1240263
I4
sI1240264
I4
sI3075279
I1020
sI1240277
I4
sI2452697
I144
sI1862887
I64
sI1895673
I64
sI683267
I4
sI1928459
I64
sI1961245
I64
sI1076530
I24
sI2649400
I384
sI2714946
I384
sI2747719
I384
sI2780492
I384
sI2714959
I384
sI2059603
I64
sI1240404
I4
sI1240405
I4
sI1240406
I4
sI1240407
I4
sI2780505
I384
sI2714972
I384
sI2387294
I144
sI2747745
I384
sI1240418
I4
sI1240419
I4
sI1240420
I4
sI2092389
I64
sI2780518
I384
sI2747758
I384
sI2420080
I144
sI1240433
I4
sI2944370
I384
sI2780531
I384
sI3075448
I1020
sI1240446
I4
sI2944383
I384
sI2780544
I384
sI2452866
I144
sI2944396
I384
sI2944409
I384
sI1895842
I64
sI2944422
I384
sI3035720
I1020
sI2944435
I384
sI1928628
I64
sI2713503
I384
sI716222
I4
sI2944448
I384
sI1961414
I64
sI2944461
I384
sI3068493
I1020
sI2484131
I144
sI1109485
I24
sI2354677
I144
sI2715128
I384
sI2747901
I384
sI2773589
I384
sI2718976
I384
sI2780674
I384
sI2715141
I384
sI2387463
I144
sI2747914
I384
sI1240587
I4
sI1240588
I4
sI1240589
I4
sI2092558
I64
sI3037553
I1020
sI2747927
I384
sI2420249
I144
sI1240602
I4
sI2944539
I384
sI2780700
I384
sI3068506
I1020
sI1240615
I4
sI2944552
I384
sI2780713
I384
sI2686216
I384
sI2944565
I384
sI2942901
I384
sI2944578
I384
sI2944591
I384
sI1599416
I1020
sI2713529
I384
sI2354508
I144
sI2944604
I384
sI1928797
I64
sI2944617
I384
sI3068519
I1020
sI2325778
I144
sI1961583
I64
sI2944630
I384
sI749177
I24
sI2942914
I384
sI2719002
I384
sI2354846
I144
sI2292316
I144
sI2059941
I64
sI2715310
I384
sI2387632
I144
sI2748083
I384
sI2092727
I64
sI2780856
I384
sI2813629
I384
sI2748096
I384
sI1240770
I4
sI1240771
I4
sI2780869
I384
sI1273542
I4
sI1273543
I4
sI1273544
I4
sI2125513
I64
sI2813642
I384
sI1240784
I4
sI2944721
I384
sI2780882
I384
sI2453204
I144
sI1273557
I4
sI2813655
I384
sI2944734
I384
sI1273570
I4
sI2813668
I384
sI2944747
I384
sI2713555
I384
sI2944760
I384
sI2944773
I384
sI3013932
I1020
sI2944786
I384
sI1961752
I64
sI2944799
I384
sI1994538
I64
sI1118855
I4
sI782132
I24
sI2322229
I144
sI2713568
I384
sI1211702
I4
sI2355015
I144
sI2060110
I64
sI2387801
I144
sI2953873
I384
sI2748265
I384
sI2420587
I144
sI2781038
I384
sI2125682
I64
sI2813811
I384
sI2303977
I144
sI1240953
I4
sI2781051
I384
sI2453373
I144
sI1273726
I4
sI2813824
I384
sI2944903
I384
sI1273739
I4
sI2813837
I384
sI2713581
I384
sI28561
I4
sI2977682
I1020
sI2977683
I1020
sI2944916
I384
sI2977685
I1020
sI2977686
I1020
sI2977687
I1020
sI2977688
I1020
sI2977696
I1020
sI2944929
I384
sI2977698
I1020
sI2977699
I1020
sI2977700
I1020
sI2977701
I1020
sI2977710
I1020
sI2977711
I1020
sI2977712
I1020
sI2977713
I1020
sI2977714
I1020
sI2944955
I384
sI2977724
I1020
sI2977725
I1020
sI2977726
I1020
sI2977727
I1020
sI421824
I4
sI1118881
I4
sI2944968
I384
sI2977738
I1020
sI2977739
I1020
sI2977740
I1020
sI1994707
I64
sI2977752
I1020
sI2977753
I1020
sI2713594
I384
sI2322398
I144
sI2232997
I144
sI2336763
I144
sI2977766
I1020
sI815087
I24
sI2355184
I144
sI2060279
I64
sI2387970
I144
sI2093065
I64
sI2420756
I144
sI1118894
I4
sI2125851
I64
sI2781220
I384
sI2453542
I144
sI2813993
I384
sI1273908
I4
sI2814006
I384
sI2945085
I384
sI2977865
I1020
sI2977866
I1020
sI2977867
I1020
sI2977868
I1020
sI2977869
I1020
sI2977870
I1020
sI2977879
I1020
sI2977880
I1020
sI2977881
I1020
sI2977882
I1020
sI2977883
I1020
sI2945124
I384
sI2977893
I1020
sI2977894
I1020
sI2977895
I1020
sI2977896
I1020
sI2945137
I384
sI2977907
I1020
sI2977908
I1020
sI2977909
I1020
sI454779
I4
sI2178410
I64
sI2977921
I1020
sI2977922
I1020
sI2322567
I144
sI2977935
I1020
sI2355353
I144
sI2060448
I64
sI848042
I24
sI2388139
I144
sI2093234
I64
sI1118921
I4
sI2420925
I144
sI2158806
I64
sI1863901
I64
sI2814175
I384
sI1306863
I4
sI2945267
I384
sI2715895
I384
sI2978048
I1020
sI2978049
I1020
sI2978050
I1020
sI2978051
I1020
sI2978052
I1020
sI2945293
I384
sI2978062
I1020
sI2978063
I1020
sI2978064
I1020
sI2978065
I1020
sI2945306
I384
sI2978076
I1020
sI2978077
I1020
sI2978078
I1020
sI2978090
I1020
sI2978091
I1020
sI487734
I4
sI2978104
I1020
sI2355522
I144
sI2715973
I384
sI2060617
I64
sI2715986
I384
sI2388308
I144
sI2093403
I64
sI880997
I24
sI2421094
I144
sI2126189
I64
sI2453880
I144
sI2158975
I64
sI1864070
I64
sI2716064
I384
sI2945449
I384
sI2716077
I384
sI1861704
I64
sI2945462
I384
sI2978231
I1020
sI2978232
I1020
sI2978233
I1020
sI2978234
I1020
sI3011003
I1020
sI3011004
I1020
sI3011005
I1020
sI3011006
I1020
sI3011007
I1020
sI2945475
I384
sI2978245
I1020
sI2978246
I1020
sI2978247
I1020
sI3011017
I1020
sI3011018
I1020
sI3011019
I1020
sI3011020
I1020
sI2978259
I1020
sI2978260
I1020
sI3011031
I1020
sI3011032
I1020
sI3011033
I1020
sI2028000
I64
sI2716129
I384
sI3011045
I1020
sI3011046
I1020
sI2355691
I144
sI2716142
I384
sI520689
I4
sI3011059
I1020
sI2716155
I384
sI2388477
I144
sI2093572
I64
sI2421263
I144
sI3068675
I1020
sI2126358
I64
sI913952
I24
sI2454049
I144
sI1864239
I64
sI1897025
I64
sI2880085
I384
sI2945631
I384
sI3068688
I1020
sI2325947
I144
sI2945644
I384
sI2978414
I1020
sI2978415
I1020
sI2978416
I1020
sI3011186
I1020
sI3011187
I1020
sI3011188
I1020
sI3011189
I1020
sI2978428
I1020
sI2978429
I1020
sI3011200
I1020
sI3011201
I1020
sI3011202
I1020
sI2975851
I1020
sI2028169
I64
sI2978442
I1020
sI3011214
I1020
sI3011215
I1020
sI2719171
I384
sI2975855
I1020
sI3011228
I1020
sI2388646
I144
sI553644
I4
sI2421432
I144
sI2126527
I64
sI2454218
I144
sI1179085
I4
sI2159313
I64
sI1864408
I64
sI946907
I24
sI2192099
I64
sI2975868
I1020
sI1897194
I64
sI2915796
I384
sI2716415
I384
sI2716428
I384
sI2749201
I384
sI2945813
I384
sI2716441
I384
sI2749214
I384
sI2978597
I1020
sI2978598
I1020
sI3011369
I1020
sI3011370
I1020
sI3011371
I1020
sI2028338
I64
sI2978611
I1020
sI2713737
I384
sI2749240
I384
sI1211871
I4
sI2356029
I144
sI2716480
I384
sI3011397
I1020
sI2716493
I384
sI2388815
I144
sI2749266
I384
sI2749279
I384
sI2421601
I144
sI1119036
I4
sI3046887
I1020
sI2454387
I144
sI2718989
I384
sI2159482
I64
sI1864577
I64
sI2975894
I1020
sI1897363
I64
sI979862
I24
sI2618278
I384
sI797511
I24
sI2618291
I384
sI2716597
I384
sI2888522
I384
sI2618304
I384
sI1209281
I4
sI2716610
I384
sI1209283
I4
sI1209284
I4
sI1209285
I4
sI1209294
I4
sI1209295
I4
sI1209296
I4
sI1209297
I4
sI1209298
I4
sI2975907
I1020
sI2323412
I144
sI2659150
I384
sI2336932
I144
sI2028507
I64
sI2978780
I1020
sI1209309
I4
sI1209310
I4
sI1209311
I4
sI3011552
I1020
sI3011553
I1020
sI3044324
I1020
sI3044325
I1020
sI3044326
I1020
sI2716649
I384
sI1209322
I4
sI1209323
I4
sI1209324
I4
sI2061293
I64
sI3011566
I1020
sI3044338
I1020
sI3044339
I1020
sI2716662
I384
sI1209336
I4
sI1209337
I4
sI3044352
I1020
sI1209350
I4
sI2421770
I144
sI1119063
I4
sI2454556
I144
sI619554
I4
sI1864746
I64
sI2192437
I64
sI1897532
I64
sI1930318
I64
sI1012817
I24
sI2618460
I384
sI2618473
I384
sI2716779
I384
sI2749552
I384
sI2178579
I64
sI1209463
I4
sI1209464
I4
sI1209465
I4
sI1209466
I4
sI1209467
I4
sI2749565
I384
sI2028676
I64
sI1209477
I4
sI1209478
I4
sI1209479
I4
sI1209480
I4
sI2913417
I384
sI2749578
I384
sI2356367
I144
sI2716818
I384
sI1209491
I4
sI1209492
I4
sI1209493
I4
sI2913430
I384
sI2749591
I384
sI3044507
I1020
sI3044508
I1020
sI2716831
I384
sI2389153
I144
sI1209506
I4
sI2913443
I384
sI2749604
I384
sI3044521
I1020
sI2298738
I144
sI1209519
I4
sI2913456
I384
sI2749617
I384
sI2421939
I144
sI2913469
I384
sI2454725
I144
sI2913482
I384
sI1864915
I64
sI2913495
I384
sI652509
I4
sI2211365
I64
sI2913508
I384
sI1897701
I64
sI2913521
I384
sI1930487
I64
sI2913547
I384
sI1045772
I24
sI2618642
I384
sI2716961
I384
sI2749734
I384
sI1209646
I4
sI1209647
I4
sI1209648
I4
sI1209649
I4
sI2749747
I384
sI2356536
I144
sI2716987
I384
sI1209660
I4
sI1209661
I4
sI1209662
I4
sI2061631
I64
sI2749760
I384
sI2717000
I384
sI2389322
I144
sI1209675
I4
sI2913612
I384
sI2749773
I384
sI3044690
I1020
sI1209688
I4
sI2913625
I384
sI2749786
I384
sI3068167
I1020
sI2913638
I384
sI2454894
I144
sI2913651
I384
sI1865084
I64
sI2913664
I384
sI2913677
I384
sI1897870
I64
sI685464
I4
sI2913690
I384
sI1930656
I64
sI1149963
I4
sI2913716
I384
sI1078727
I24
sI2651597
I384
sI2323919
I144
sI2029014
I64
sI2717143
I384
sI2749916
I384
sI2782689
I384
sI2717156
I384
sI1209829
I4
sI1209830
I4
sI1209831
I4
sI2061800
I64
sI2749929
I384
sI1242602
I4
sI1242603
I4
sI1242604
I4
sI2782702
I384
sI2717169
I384
sI1209843
I4
sI1209844
I4
sI2913781
I384
sI2749942
I384
sI1242615
I4
sI1242616
I4
sI1242617
I4
sI2094586
I64
sI2782715
I384
sI1209857
I4
sI2913794
I384
sI2749955
I384
sI1242629
I4
sI1242630
I4
sI2782728
I384
sI3077645
I1020
sI2913807
I384
sI1242643
I4
sI1121597
I4
sI2455063
I144
sI2913820
I384
sI2913833
I384
sI2913846
I384
sI1898039
I64
sI2913859
I384
sI1930825
I64
sI718419
I4
sI2806713
I384
sI1963611
I64
sI2913885
I384
sI2324088
I144
sI2029183
I64
sI2356874
I144
sI2717325
I384
sI2750098
I384
sI2782871
I384
sI2717338
I384
sI2389660
I144
sI1210013
I4
sI2750111
I384
sI1242784
I4
sI1242785
I4
sI1242786
I4
sI2094755
I64
sI2782884
I384
sI1210026
I4
sI2913963
I384
sI2750124
I384
sI2422446
I144
sI1242799
I4
sI2946736
I384
sI2782897
I384
sI2913976
I384
sI1242812
I4
sI2946749
I384
sI2782910
I384
sI2913989
I384
sI2946762
I384
sI1178342
I4
sI2914002
I384
sI2946775
I384
sI2885961
I384
sI2976037
I1020
sI2946788
I384
sI2914028
I384
sI2946801
I384
sI1930994
I64
sI2946814
I384
sI1963780
I64
sI2914054
I384
sI2946827
I384
sI751374
I24
sI2291471
I144
sI2725567
I384
sI1147793
I4
sI2324257
I144
sI2029352
I64
sI2713906
I384
sI1212040
I4
sI2357043
I144
sI2062138
I64
sI2717507
I384
sI2389829
I144
sI2750280
I384
sI2094924
I64
sI2783053
I384
sI1210195
I4
sI2750293
I384
sI2422615
I144
sI1242968
I4
sI2783066
I384
sI2200549
I64
sI2914145
I384
sI1242981
I4
sI2946918
I384
sI2783079
I384
sI2455401
I144
sI2914158
I384
sI2946931
I384
sI2713919
I384
sI2946944
I384
sI2914184
I384
sI2946957
I384
sI2914197
I384
sI391066
I4
sI2946983
I384
sI1963949
I64
sI2914223
I384
sI2946996
I384
sI2291640
I144
sI2976076
I1020
sI2324426
I144
sI2659319
I384
sI2029521
I64
sI2357212
I144
sI2062307
I64
sI2389998
I144
sI2750462
I384
sI2684929
I384
sI2783235
I384
sI1125978
I4
sI2127879
I64
sI1243150
I4
sI2783248
I384
sI2455570
I144
sI1275923
I4
sI2914327
I384
sI2684955
I384
sI2947100
I384
sI1275936
I4
sI2914340
I384
sI1570855
I1020
sI2684968
I384
sI2947113
I384
sI2914353
I384
sI2684981
I384
sI2947126
I384
sI2369887
I144
sI2914366
I384
sI2684994
I384
sI2947139
I384
sI2685007
I384
sI2947152
I384
sI424021
I4
sI2914392
I384
sI2685020
I384
sI2947165
I384
sI1996904
I64
sI2178748
I64
sI2324595
I144
sI2685046
I384
sI2029690
I64
sI2685059
I384
sI817284
I24
sI2357381
I144
sI2062476
I64
sI2390167
I144
sI2095262
I64
sI1119259
I4
sI2422953
I144
sI2128048
I64
sI2783417
I384
sI2455739
I144
sI2685124
I384
sI1276105
I4
sI2914509
I384
sI2685137
I384
sI2947282
I384
sI2211534
I64
sI2727764
I384
sI2914522
I384
sI2685150
I384
sI2980063
I1020
sI2980064
I1020
sI2980065
I1020
sI2980066
I1020
sI2980067
I1020
sI2914535
I384
sI2685163
I384
sI2980076
I1020
sI2980077
I1020
sI2980078
I1020
sI2980079
I1020
sI2980080
I1020
sI1152173
I4
sI2685176
I384
sI2947321
I384
sI2980090
I1020
sI2980091
I1020
sI2980092
I1020
sI2980093
I1020
sI2914561
I384
sI2685189
I384
sI2947334
I384
sI2980104
I1020
sI2980105
I1020
sI2980106
I1020
sI456976
I4
sI2685202
I384
sI2980118
I1020
sI2980119
I1020
sI2324764
I144
sI2685215
I384
sI2029859
I64
sI2980132
I1020
sI2685228
I384
sI2357550
I144
sI2062645
I64
sI850239
I24
sI2390336
I144
sI2095431
I64
sI2423122
I144
sI2604771
I384
sI2455908
I144
sI1866098
I64
sI2849145
I384
sI2914691
I384
sI2849158
I384
sI2947464
I384
sI2914704
I384
sI2980245
I1020
sI2980246
I1020
sI2980247
I1020
sI2980248
I1020
sI2980249
I1020
sI529477
I4
sI2947490
I384
sI2980259
I1020
sI2980260
I1020
sI2980261
I1020
sI2980262
I1020
sI2914730
I384
sI2947503
I384
sI2980273
I1020
sI2980274
I1020
sI2292147
I144
sI2980287
I1020
sI2980288
I1020
sI489931
I4
sI2980301
I1020
sI2357719
I144
sI2062814
I64
sI2390505
I144
sI2885987
I384
sI2095600
I64
sI883194
I24
sI2423291
I144
sI2128386
I64
sI2161172
I64
sI1866267
I64
sI2685475
I384
sI2849327
I384
sI2685488
I384
sI2718261
I384
sI1178371
I4
sI2914873
I384
sI2685501
I384
sI2947646
I384
sI2718274
I384
sI2685514
I384
sI1147820
I4
sI2980428
I1020
sI2980429
I1020
sI2980430
I1020
sI2980431
I1020
sI2914899
I384
sI2685527
I384
sI2947672
I384
sI2980442
I1020
sI2980443
I1020
sI2980444
I1020
sI2685540
I384
sI2980456
I1020
sI2718313
I384
sI2325102
I144
sI2685553
I384
sI2980470
I1020
sI2207309
I64
sI2357888
I144
sI2718339
I384
sI522886
I4
sI2718352
I384
sI2390674
I144
sI2095769
I64
sI2423460
I144
sI2128555
I64
sI2780154
I384
sI916149
I24
sI2839668
I384
sI1866436
I64
sI2685657
I384
sI1178340
I4
sI1178341
I4
sI2685670
I384
sI1178343
I4
sI1178344
I4
sI1178345
I4
sI1178353
I4
sI1178354
I4
sI2685683
I384
sI2947828
I384
sI1178357
I4
sI1178358
I4
sI2915068
I384
sI1178367
I4
sI1178368
I4
sI1178369
I4
sI1178370
I4
sI2980611
I1020
sI2980612
I1020
sI2980613
I1020
sI3013383
I1020
sI3013384
I1020
sI3013385
I1020
sI3013386
I1020
sI1178381
I4
sI1178382
I4
sI1178383
I4
sI1178384
I4
sI2980625
I1020
sI2980626
I1020
sI3013397
I1020
sI3013398
I1020
sI3013399
I1020
sI2685722
I384
sI1178395
I4
sI1178396
I4
sI1178397
I4
sI2030366
I64
sI2980639
I1020
sI3013411
I1020
sI3013412
I1020
sI2685735
I384
sI1178409
I4
sI1178410
I4
sI3013425
I1020
sI1178423
I4
sI2390843
I144
sI3008992
I1020
sI2423629
I144
sI2128724
I64
sI2161510
I64
sI2233504
I144
sI1866605
I64
sI949104
I24
sI1899391
I64
sI2685839
I384
sI1244995
I4
sI2718612
I384
sI1178522
I4
sI1178523
I4
sI2685852
I384
sI1178525
I4
sI1178526
I4
sI1178527
I4
sI2718625
I384
sI1178536
I4
sI2685865
I384
sI1178538
I4
sI1178539
I4
sI1178540
I4
sI2292654
I144
sI1152158
I4
sI2685878
I384
sI1178551
I4
sI1178552
I4
sI1178553
I4
sI2980794
I1020
sI2980795
I1020
sI3013566
I1020
sI3013567
I1020
sI2325440
I144
sI1152160
I4
sI2685891
I384
sI1178564
I4
sI1178565
I4
sI1178566
I4
sI2030535
I64
sI2980808
I1020
sI3013580
I1020
sI3013581
I1020
sI2685904
I384
sI2358226
I144
sI1178579
I4
sI2718677
I384
sI3013594
I1020
sI2746874
I384
sI1178592
I4
sI2718690
I384
sI2391012
I144
sI2423798
I144
sI1119401
I4
sI588796
I4
sI2161679
I64
sI1866774
I64
sI1899560
I64
sI982059
I24
sI2686021
I384
sI2718794
I384
sI2422277
I144
sI1178705
I4
sI2686034
I384
sI1178707
I4
sI1178708
I4
sI1178709
I4
sI2718807
I384
sI1152186
I4
sI2686047
I384
sI1178720
I4
sI1178721
I4
sI1178722
I4
sI2921659
I384
sI2718820
I384
sI2325609
I144
sI2916199
I384
sI2686060
I384
sI1178733
I4
sI1178734
I4
sI1178735
I4
sI2030704
I64
sI2980977
I1020
sI3013749
I1020
sI3013750
I1020
sI2686073
I384
sI2358395
I144
sI1178748
I4
sI2718846
I384
sI3013763
I1020
sI228488
I4
sI1178761
I4
sI2718859
I384
sI2987204
I1020
sI2423967
I144
sI621751
I4
sI1866943
I64
sI2194634
I64
sI2211703
I64
sI1899729
I64
sI1015014
I24
sI2620657
I384
sI2686203
I384
sI2620670
I384
sI2292992
I144
sI2751749
I384
sI1178888
I4
sI1178889
I4
sI1178890
I4
sI1178891
I4
sI1211660
I4
sI1211661
I4
sI1211662
I4
sI1211663
I4
sI1211664
I4
sI2751762
I384
sI2686229
I384
sI1178902
I4
sI1178903
I4
sI1178904
I4
sI2030873
I64
sI1211674
I4
sI1211675
I4
sI1211676
I4
sI1211677
I4
sI2751775
I384
sI2686242
I384
sI1178916
I4
sI1178917
I4
sI2719015
I384
sI1211688
I4
sI1211689
I4
sI1211690
I4
sI2063659
I64
sI2751788
I384
sI3046704
I1020
sI3046705
I1020
sI1178930
I4
sI2719028
I384
sI2391350
I144
sI1211703
I4
sI2751801
I384
sI3046718
I1020
sI1211716
I4
sI2751814
I384
sI2424136
I144
sI1867112
I64
sI654706
I4
sI1899898
I64
sI1932684
I64
sI1047969
I24
sI2620839
I384
sI2293161
I144
sI2686385
I384
sI2719158
I384
sI2751931
I384
sI2686398
I384
sI1179071
I4
sI1179072
I4
sI1179073
I4
sI1211843
I4
sI1211844
I4
sI1211845
I4
sI1211846
I4
sI2751944
I384
sI2686411
I384
sI2358733
I144
sI1179086
I4
sI2719184
I384
sI1211857
I4
sI1211858
I4
sI1211859
I4
sI2063828
I64
sI2751957
I384
sI1179099
I4
sI2719197
I384
sI2391519
I144
sI1211872
I4
sI2915809
I384
sI2751970
I384
sI2944942
I384
sI1211885
I4
sI2915822
I384
sI2751983
I384
sI2915835
I384
sI2915848
I384
sI1867281
I64
sI2915861
I384
sI2915874
I384
sI1900067
I64
sI687661
I4
sI2915887
I384
sI2312089
I144
sI1932853
I64
sI2915913
I384
sI2293330
I144
sI2868567
I384
sI2326116
I144
sI2686567
I384
sI2031211
I64
sI2719340
I384
sI2752113
I384
sI2686580
I384
sI2358902
I144
sI1179255
I4
sI2719353
I384
sI1212026
I4
sI1212027
I4
sI1212028
I4
sI2063997
I64
sI2752126
I384
sI1179268
I4
sI2719366
I384
sI2391688
I144
sI1212041
I4
sI2915978
I384
sI2752139
I384
sI1212054
I4
sI2915991
I384
sI2752152
I384
sI2424474
I144
sI2916004
I384
sI2790008
I384
sI2916017
I384
sI2916030
I384
sI2916043
I384
sI1900236
I64
sI2916056
I384
sI1933022
I64
sI720616
I4
sI2260713
I144
sI2916082
I384
sI2293499
I144
sI2326285
I144
sI2031380
I64
sI955695
I24
sI2686749
I384
sI2359071
I144
sI2719522
I384
sI2752295
I384
sI1179437
I4
sI2719535
I384
sI1212209
I4
sI1212210
I4
sI2752308
I384
sI1244981
I4
sI1244982
I4
sI1244983
I4
sI2096952
I64
sI1212223
I4
sI2916160
I384
sI2752321
I384
sI2424643
I144
sI1244996
I4
sI2916173
I384
sI1245009
I4
sI2916186
I384
sI2714257
I384
sI2916212
I384
sI2916225
I384
sI2747030
I384
sI1933191
I64
sI1245164
I4
sI1965977
I64
sI2916251
I384
sI753571
I24
sI2293668
I144
sI2976414
I1020
sI2326454
I144
sI2233673
I144
sI2031549
I64
sI2359240
I144
sI2064335
I64
sI2747043
I384
sI2719704
I384
sI2392026
I144
sI2752477
I384
sI2097121
I64
sI1212392
I4
sI2752490
I384
sI2424812
I144
sI1245165
I4
sI2916342
I384
sI1245178
I4
sI2949115
I384
s.