(dp0
I0
I0
sI2916355
I5825
sI1152342
I1040
sI2949128
I6102
sI2916368
I5826
sI2949141
I6103
sI2916381
I5827
sI3009200
I6932
sI2949154
I6104
sI2916394
I5828
sI393263
I19
sI2949180
I6106
sI1966146
I1871
sI2916420
I5829
sI2949193
I6107
sI2293837
I2732
sI1152355
I1044
sI786526
I184
sI2326623
I2852
sI2031718
I2023
sI2359409
I2961
sI2064504
I2105
sI2392195
I3059
sI1119597
I593
sI2752659
I4609
sI2424981
I3147
sI2818205
I5075
sI1245347
I1541
sI2818218
I5076
sI2916524
I5830
sI2949297
I6108
sI2818231
I5077
sI2004340
I1961
sI2949310
I6109
sI2916550
I5832
sI2949323
I6110
sI2916563
I5833
sI2949336
I6111
sI2261220
I2600
sI2949349
I6112
sI426218
I33
sI2916589
I5834
sI2949362
I6113
sI1152383
I1051
sI2326792
I2853
sI2031887
I2024
sI819481
I198
sI2359578
I2962
sI2949167
I6105
sI2064673
I2106
sI2392364
I3060
sI2670642
I3950
sI2097459
I2184
sI2130245
I2259
sI2818387
I5078
sI2687321
I4040
sI1278302
I1580
sI2818400
I5079
sI2916706
I5835
sI2687334
I4041
sI2949479
I6114
sI2916719
I5836
sI2687347
I4042
sI2949492
I6115
sI2916732
I5837
sI2687360
I4043
sI2949505
I6116
sI2261389
I2601
sI2949518
I6117
sI2916758
I5838
sI2687386
I4045
sI2949531
I6118
sI2294175
I2733
sI459173
I47
sI2687399
I4046
sI2326961
I2854
sI2687412
I4047
sI2032056
I2025
sI2687425
I4048
sI2359747
I2963
sI2064842
I2107
sI852436
I212
sI2392533
I3061
sI2097628
I2185
sI2425319
I3148
sI1147399
I815
sI1147400
I816
sI1147401
I817
sI1147402
I818
sI1147403
I819
sI1147404
I820
sI1147405
I821
sI1147412
I822
sI1147413
I823
sI1147414
I824
sI1147415
I825
sI1147416
I826
sI1147417
I827
sI1147418
I828
sI2949661
I6119
sI1147426
I829
sI1147427
I830
sI1147428
I831
sI1147429
I832
sI1147430
I833
sI1147431
I834
sI2949674
I6120
sI2982443
I6610
sI2982444
I6611
sI2982445
I6612
sI2982446
I6613
sI1147440
I835
sI1147441
I836
sI1147442
I837
sI1147443
I838
sI1147444
I839
sI2261558
I2602
sI2949687
I6121
sI2982456
I6614
sI2982457
I6615
sI2982458
I6616
sI2982459
I6617
sI1147454
I840
sI1147455
I841
sI1147456
I842
sI1147457
I843
sI2949700
I6122
sI2982470
I6618
sI2982471
I6619
sI2982472
I6620
sI1147468
I844
sI1147469
I845
sI1147470
I846
sI1999439
I1939
sI2982484
I6621
sI2982485
I6622
sI1147482
I847
sI1147483
I848
sI492128
I61
sI2982498
I6623
sI1147496
I849
sI2359916
I2964
sI2065011
I2108
sI2392702
I3062
sI2097797
I2186
sI885391
I226
sI2425488
I3149
sI2130583
I2260
sI1868464
I1647
sI2687672
I4049
sI1147581
I850
sI1147582
I851
sI1147583
I852
sI1147584
I853
sI1147585
I854
sI1147586
I855
sI1147587
I856
sI2851524
I5304
sI2687685
I4050
sI1147595
I857
sI1147596
I858
sI1147597
I859
sI1147598
I860
sI1147599
I861
sI1147600
I862
sI2687698
I4051
sI2949843
I6123
sI1147609
I863
sI1147610
I864
sI1147611
I865
sI1147612
I866
sI1147613
I867
sI2261727
I2603
sI2949856
I6124
sI2982625
I6624
sI2982626
I6625
sI2982627
I6626
sI2982628
I6627
sI1147623
I868
sI1147624
I869
sI1147625
I870
sI1147626
I871
sI2687724
I4053
sI2949869
I6125
sI2982639
I6628
sI2982640
I6629
sI2294513
I2734
sI1147637
I872
sI1147638
I873
sI1147639
I874
sI1999608
I1940
sI2687737
I4054
sI2982653
I6631
sI2982654
I6632
sI1147651
I875
sI1147652
I876
sI2687750
I4055
sI2982667
I6633
sI1147665
I877
sI2687763
I4056
sI2360085
I2965
sI2392871
I3063
sI2097966
I2187
sI2425657
I3150
sI2130752
I2261
sI918346
I240
sI1868633
I1648
sI2687854
I4057
sI1147764
I878
sI1147765
I879
sI1147766
I880
sI1147767
I881
sI1147768
I882
sI1147769
I883
sI2687867
I4058
sI1147778
I884
sI1147779
I885
sI1147780
I886
sI1147781
I887
sI1147782
I888
sI2261896
I2604
sI2950025
I6126
sI1147792
I889
sI1147793
I890
sI1147794
I891
sI1147795
I892
sI2687893
I4060
sI2950038
I6127
sI2982808
I6634
sI2982809
I6635
sI2294682
I2735
sI1147806
I893
sI1147807
I894
sI1147808
I895
sI1999777
I1941
sI2687906
I4061
sI2982822
I6637
sI2982823
I6638
sI2976583
I6468
sI1147820
I896
sI1147821
I897
sI2687919
I4062
sI2982836
I6639
sI1147834
I898
sI2687932
I4063
sI2393040
I3064
sI558038
I88
sI2951494
I6129
sI2425826
I3151
sI3042129
I7193
sI2130921
I2262
sI2163707
I2332
sI1868802
I1649
sI951301
I254
sI3003905
I6698
sI2688036
I4064
sI2720809
I4341
sI1147947
I899
sI1147948
I900
sI1147949
I901
sI1147950
I902
sI1147951
I903
sI1180720
I1228
sI1180721
I1229
sI1180722
I1230
sI1180723
I1231
sI1180724
I1232
sI2720822
I4342
sI1119753
I597
sI1147961
I904
sI1147962
I905
sI1147963
I906
sI1147964
I907
sI1180733
I1233
sI1180734
I1234
sI1180735
I1235
sI1180736
I1236
sI1180737
I1237
sI2294851
I2736
sI1147975
I908
sI1147976
I909
sI1147977
I910
sI1999946
I1942
sI2688075
I4067
sI1180748
I1239
sI1180749
I1240
sI1180750
I1241
sI2982991
I6640
sI2720848
I4344
sI3015763
I6992
sI3015764
I6993
sI1147989
I911
sI1147990
I912
sI2916537
I5831
sI2688088
I4068
sI1180761
I1242
sI1180762
I1243
sI1180763
I1244
sI2032732
I2026
sI2720861
I4345
sI3015777
I6995
sI3015778
I6996
sI1148003
I913
sI2688101
I4069
sI1180775
I1245
sI1180776
I1246
sI2720874
I4346
sI3015791
I6997
sI1180789
I1247
sI2720887
I4347
sI2393209
I3065
sI1119766
I599
sI2425995
I3152
sI590993
I102
sI2163876
I2333
sI1868971
I1650
sI1901757
I1726
sI984256
I268
sI1121246
I620
sI3037747
I7139
sI2262234
I2606
sI2720991
I4348
sI1148130
I914
sI1148131
I915
sI1148132
I916
sI1148133
I917
sI1180902
I1248
sI1180903
I1249
sI1180904
I1250
sI1180905
I1251
sI1180906
I1252
sI2295020
I2737
sI1148144
I918
sI1148145
I919
sI1148146
I920
sI1180916
I1253
sI1180917
I1254
sI1180918
I1255
sI1180919
I1256
sI2884856
I5525
sI2721017
I4350
sI1148158
I921
sI1148159
I922
sI2688257
I4073
sI1180930
I1257
sI1180931
I1258
sI1180932
I1259
sI2032901
I2027
sI2721030
I4351
sI3015946
I6998
sI3015947
I6999
sI1148172
I923
sI2688270
I4074
sI2360592
I2967
sI1180945
I1261
sI2884882
I5527
sI2721043
I4352
sI3015960
I7000
sI1180958
I1262
sI2884895
I5528
sI2721056
I4353
sI2987568
I6673
sI2884908
I5529
sI2426164
I3153
sI2884921
I5530
sI2884934
I5531
sI623948
I116
sI2884947
I5532
sI1869140
I1651
sI1901926
I1727
sI2884973
I5533
sI2884986
I5534
sI1017211
I282
sI2262403
I2607
sI2688400
I4075
sI2721173
I4354
sI1148313
I924
sI1148314
I925
sI1148315
I926
sI2000284
I1943
sI2688413
I4076
sI1181086
I1264
sI1181087
I1265
sI1181088
I1266
sI2721186
I4355
sI2327975
I2858
sI1148328
I928
sI2688426
I4077
sI1181099
I1267
sI1181100
I1268
sI1181101
I1269
sI2033070
I2028
sI2721199
I4356
sI1148341
I929
sI2688439
I4078
sI1181113
I1270
sI1181114
I1271
sI2885051
I5536
sI2721212
I4357
sI3016129
I7001
sI1181127
I1272
sI2885064
I5537
sI2721225
I4358
sI2393547
I3066
sI2885077
I5538
sI2426333
I3154
sI2885090
I5539
sI2885103
I5540
sI2206633
I2432
sI2310399
I2815
sI2885116
I5541
sI1869309
I1652
sI656903
I130
sI1902095
I1728
sI3066127
I7257
sI2885142
I5542
sI2885155
I5543
sI2262572
I2608
sI2623036
I3544
sI2295358
I2739
sI2000453
I1944
sI2688582
I4079
sI2721355
I4359
sI1148496
I930
sI1148497
I931
sI2688595
I4080
sI1181268
I1273
sI1181269
I1274
sI1181270
I1275
sI2721368
I4360
sI1214041
I1444
sI1214042
I1445
sI1214043
I1446
sI1148510
I932
sI2688608
I4081
sI1181282
I1276
sI1181283
I1277
sI2885220
I5544
sI2721381
I4361
sI1214054
I1447
sI1214055
I1448
sI1214056
I1449
sI2066025
I2109
sI1181296
I1278
sI2885233
I5545
sI2721394
I4362
sI2393716
I3067
sI1214069
I1451
sI3049084
I7215
sI2885246
I5546
sI1214082
I1452
sI2885259
I5547
sI2885272
I5548
sI2885285
I5549
sI1869478
I1653
sI1902264
I1729
sI2885311
I5550
sI689858
I144
sI1935050
I1801
sI2885324
I5551
sI2262741
I2609
sI2295527
I2740
sI2000622
I1945
sI1083121
I309
sI2328313
I2860
sI2688764
I4082
sI2033408
I2029
sI2721537
I4363
sI1148679
I933
sI2688777
I4083
sI1181451
I1279
sI1181452
I1280
sI2721550
I4364
sI1214223
I1453
sI1214224
I1454
sI1214225
I1455
sI2066194
I2110
sI1181465
I1281
sI2885402
I5552
sI2721563
I4365
sI1214237
I1456
sI1214238
I1457
sI2918175
I5845
sI2885415
I5553
sI1214251
I1458
sI2918188
I5846
sI2426671
I3155
sI2885428
I5554
sI2918201
I5847
sI2885441
I5555
sI2918214
I5848
sI2885454
I5556
sI2918227
I5849
sI3004046
I6713
sI2918240
I5850
sI1902433
I1730
sI2885480
I5557
sI2918253
I5851
sI1935219
I1802
sI2885493
I5558
sI722813
I158
sI2262910
I2610
sI2918279
I5852
sI2295696
I2741
sI2000791
I1946
sI2328482
I2861
sI2033577
I2030
sI2688946
I4084
sI2361268
I2970
sI2721719
I4366
sI2787265
I4845
sI1181634
I1282
sI2721732
I4367
sI1214406
I1459
sI1214407
I1460
sI2787278
I4846
sI2885584
I5559
sI1214420
I1461
sI2918357
I5853
sI2426840
I3156
sI2787291
I4847
sI2354170
I2934
sI2918370
I5854
sI2787304
I4848
sI2885610
I5561
sI2918383
I5855
sI2885623
I5562
sI2918396
I5856
sI2918409
I5857
sI3009538
I6936
sI2885649
I5563
sI2230293
I2467
sI2918422
I5858
sI1935388
I1803
sI2885662
I5564
sI3042311
I7198
sI2918448
I5859
sI755768
I171
sI2295865
I2742
sI2000960
I1947
sI2328651
I2862
sI2033746
I2031
sI2361437
I2971
sI2066532
I2111
sI2721901
I4368
sI2099318
I2188
sI2787447
I4849
sI3042324
I7199
sI1119935
I602
sI1214589
I1462
sI1247361
I1542
sI1247362
I1543
sI2787460
I4850
sI2885766
I5565
sI2656394
I3766
sI2918539
I5860
sI1247375
I1544
sI2787473
I4851
sI2885779
I5566
sI1542294
I1601
sI2656407
I3767
sI2918552
I5861
sI2885792
I5567
sI2656420
I3768
sI2918565
I5862
sI2656433
I3769
sI2918578
I5863
sI2885818
I5568
sI2230462
I2468
sI2918591
I5864
sI395460
I20
sI2885831
I5569
sI2656459
I3771
sI2263248
I2611
sI1968343
I1872
sI2656472
I3772
sI2918617
I5865
sI2296034
I2743
sI2656485
I3773
sI2001129
I1948
sI2656498
I3774
sI788723
I185
sI2328820
I2863
sI2033915
I2032
sI2361606
I2972
sI2066701
I2112
sI2394392
I3070
sI3066153
I7260
sI1116458
I322
sI1116459
I323
sI1116460
I324
sI2787629
I4852
sI1116462
I326
sI1116463
I327
sI1116464
I328
sI1116465
I329
sI1116471
I330
sI1116472
I331
sI1116473
I332
sI2787642
I4853
sI1116475
I334
sI1116476
I335
sI1116477
I336
sI1116478
I337
sI2918721
I5866
sI1116485
I338
sI1116486
I339
sI1116487
I340
sI1116488
I341
sI1116489
I342
sI1116490
I343
sI1116491
I344
sI2918734
I5867
sI2687373
I4044
sI1116499
I345
sI1116500
I346
sI1116501
I347
sI1116502
I348
sI1116503
I349
sI1116504
I350
sI2918747
I5868
sI2951520
I6131
sI1116513
I351
sI1116514
I352
sI1116515
I353
sI1116516
I354
sI1116517
I355
sI2230631
I2469
sI2918760
I5869
sI2951533
I6132
sI1116527
I356
sI1116528
I357
sI1116529
I358
sI1116530
I359
sI2951546
I6133
sI1116541
I360
sI1116542
I361
sI1116543
I362
sI2918786
I5870
sI2951559
I6134
sI1116555
I363
sI1116556
I364
sI2001298
I1949
sI1116569
I365
sI2328989
I2864
sI2034084
I2033
sI821678
I199
sI2361775
I2973
sI2066870
I2113
sI2394561
I3071
sI2099656
I2189
sI2427347
I3159
sI2656732
I3775
sI1116640
I366
sI1116641
I367
sI1116642
I368
sI1116643
I369
sI1116644
I370
sI1116645
I371
sI1116646
I372
sI1116647
I373
sI2820584
I5081
sI2656745
I3776
sI2206802
I2433
sI1116654
I374
sI1116655
I375
sI1116656
I376
sI1116657
I377
sI1116658
I378
sI1116659
I379
sI1116660
I380
sI2820597
I5082
sI2656758
I3777
sI2918903
I5871
sI1116668
I381
sI1116669
I382
sI1116670
I383
sI1116671
I384
sI1116672
I385
sI1116673
I386
sI2656771
I3778
sI2918916
I5872
sI2951689
I6136
sI1116682
I387
sI1116683
I388
sI1116684
I389
sI1116685
I390
sI1116686
I391
sI2230800
I2470
sI2918929
I5873
sI2951702
I6137
sI1116696
I392
sI1116697
I393
sI1116698
I394
sI1116699
I395
sI2656797
I3780
sI2263586
I2612
sI2951715
I6138
sI1116710
I396
sI1116711
I397
sI1116712
I398
sI2656810
I3781
sI2918955
I5874
sI2951728
I6139
sI1116724
I399
sI1116725
I400
sI2656823
I3782
sI461370
I48
sI1116738
I401
sI2656836
I3783
sI2329158
I2865
sI2327468
I2856
sI2034253
I2034
sI2361944
I2974
sI2067039
I2114
sI854633
I213
sI2394730
I3072
sI2099825
I2190
sI2656914
I3784
sI1116823
I402
sI1116824
I403
sI1116825
I404
sI1116826
I405
sI1116827
I406
sI1116828
I407
sI1116829
I408
sI2820766
I5083
sI2656927
I3785
sI1116837
I409
sI1116838
I410
sI1116839
I411
sI1116840
I412
sI1116841
I413
sI1116842
I414
sI2656940
I3786
sI2919085
I5875
sI2951858
I6140
sI1116851
I415
sI1116852
I416
sI1116853
I417
sI1116854
I418
sI1116855
I419
sI2656953
I3787
sI2919098
I5876
sI2951871
I6141
sI1116865
I420
sI1116866
I421
sI1116867
I422
sI1116868
I423
sI2656966
I3788
sI2263755
I2613
sI2951884
I6142
sI1116879
I424
sI1116880
I425
sI1116881
I426
sI2656979
I3789
sI2919124
I5877
sI2951897
I6143
sI2296541
I2745
sI1116894
I428
sI2656992
I3790
sI1116907
I429
sI2657005
I3791
sI2362113
I2975
sI2067208
I2115
sI1150145
I984
sI2394899
I3073
sI2099994
I2191
sI1890096
I1687
sI887588
I227
sI2132780
I2263
sI2657096
I3792
sI2689869
I4085
sI1117006
I430
sI1117007
I431
sI1117008
I432
sI1117009
I433
sI1149778
I934
sI1117011
I435
sI1149780
I936
sI2657109
I3793
sI1149782
I938
sI1149783
I939
sI1149784
I940
sI2689882
I4086
sI1117020
I436
sI1117021
I437
sI1117022
I438
sI1117023
I439
sI1149792
I941
sI1149793
I942
sI2231138
I2472
sI1149795
I944
sI1149796
I945
sI1149797
I946
sI2689895
I4087
sI2952040
I6144
sI1117034
I441
sI1117035
I442
sI1117036
I443
sI1117037
I444
sI1149806
I947
sI1149807
I948
sI1149808
I949
sI1149809
I950
sI1149810
I951
sI2689908
I4088
sI2747563
I4548
sI2984822
I6644
sI2984823
I6645
sI1117048
I445
sI1117049
I446
sI1117050
I447
sI1149820
I952
sI1149821
I953
sI1149822
I954
sI1149823
I955
sI2689921
I4089
sI2952066
I6146
sI3097067
I7369
sI2984836
I6648
sI2984837
I6649
sI1117062
I448
sI1117063
I449
sI2657161
I3797
sI1149834
I956
sI1149835
I957
sI1149836
I958
sI2001805
I1950
sI2689934
I4090
sI2984850
I6651
sI2984851
I6652
sI1117076
I450
sI2657174
I3798
sI2329496
I2866
sI1149849
I960
sI2689947
I4091
sI2984864
I6653
sI1149862
I961
sI2689960
I4092
sI2362282
I2976
sI527280
I75
sI1240222
I1478
sI3004233
I6745
sI2395068
I3074
sI2100163
I2192
sI3097080
I7370
sI2132949
I2264
sI920543
I241
sI1870830
I1654
sI2657278
I3799
sI2690051
I4093
sI1117189
I451
sI1117190
I452
sI1117191
I453
sI1117192
I454
sI1117193
I455
sI1149962
I963
sI2231307
I2473
sI1149964
I965
sI1149965
I966
sI1149966
I967
sI2690064
I4094
sI1117203
I456
sI1117204
I457
sI1117205
I458
sI1117206
I459
sI1149975
I968
sI1149976
I969
sI1149977
I970
sI1149978
I971
sI1149979
I972
sI2690077
I4095
sI2952222
I6147
sI1117217
I460
sI1117218
I461
sI1117219
I462
sI2657317
I3802
sI1149990
I974
sI1149991
I975
sI1149992
I976
sI2690090
I4096
sI2952235
I6148
sI2985005
I6654
sI2985006
I6655
sI2296879
I2746
sI1117232
I464
sI2657330
I3803
sI1150003
I977
sI1150004
I978
sI1150005
I979
sI2001974
I1951
sI2690103
I4097
sI2985019
I6657
sI2985020
I6658
sI1117245
I465
sI2657343
I3804
sI2329665
I2867
sI1150018
I981
sI2690116
I4098
sI2985033
I6659
sI1150031
I982
sI2690129
I4099
sI3004260
I6755
sI2395237
I3075
sI560235
I89
sI2133118
I2265
sI2916888
I5839
sI1870999
I1655
sI953498
I255
sI3004273
I6758
sI2657460
I3805
sI2690233
I4100
sI1117372
I466
sI1117373
I467
sI1117374
I468
sI1117375
I469
sI1150144
I983
sI2657473
I3806
sI1150146
I985
sI1150147
I986
sI1150148
I987
sI2690246
I4101
sI1117386
I470
sI1117387
I471
sI1117388
I472
sI2657486
I3807
sI1150159
I989
sI1150160
I990
sI1150161
I991
sI2690259
I4102
sI2952404
I6149
sI1117400
I473
sI1117401
I474
sI2657499
I3808
sI1150172
I992
sI1150173
I993
sI1150174
I994
sI2002143
I1952
sI2690272
I4103
sI2985188
I6660
sI2985189
I6661
sI1117414
I475
sI2657512
I3809
sI2329834
I2868
sI1150187
I996
sI2690285
I4104
sI2985202
I6662
sI3004286
I6760
sI199927
I7
sI1150200
I997
sI2690298
I4105
sI2362620
I2977
sI2982442
I6609
sI2395406
I3076
sI593190
I103
sI1871168
I1656
sI3004299
I6761
sI1185676
I1331
sI986453
I269
sI2231645
I2475
sI2657642
I3810
sI2264431
I2617
sI1117555
I476
sI1117556
I477
sI1117557
I478
sI1150327
I998
sI1150328
I999
sI1150329
I1000
sI1150330
I1001
sI1183099
I1283
sI1183100
I1284
sI1183101
I1285
sI1183102
I1286
sI1183103
I1287
sI1117569
I479
sI1117570
I480
sI2657668
I3812
sI1150341
I1002
sI1150342
I1003
sI1150343
I1004
sI1183113
I1288
sI1183114
I1289
sI1183115
I1290
sI1183116
I1291
sI1117583
I481
sI2657681
I3813
sI1150355
I1005
sI1150356
I1006
sI2690454
I4109
sI1183127
I1292
sI1183128
I1293
sI1183129
I1294
sI2035098
I2035
sI2985371
I6663
sI3018143
I7002
sI3018144
I7003
sI1150369
I1007
sI2690467
I4110
sI1183141
I1295
sI1183142
I1296
sI3018157
I7004
sI1183155
I1297
sI2331862
I2878
sI626145
I117
sI2632955
I3619
sI1871337
I1657
sI1904123
I1731
sI2231814
I2476
sI2264600
I2618
sI2657824
I3814
sI2690597
I4111
sI1117738
I482
sI1117739
I483
sI2657837
I3815
sI1150510
I1008
sI1150511
I1009
sI1150512
I1010
sI2002481
I1953
sI1183282
I1298
sI1183283
I1299
sI1183284
I1300
sI1183285
I1301
sI1117752
I484
sI2657850
I3816
sI1150524
I1011
sI1150525
I1012
sI2690623
I4113
sI1183296
I1302
sI1183297
I1303
sI1183298
I1304
sI2035267
I2036
sI1150538
I1013
sI2690636
I4114
sI2362958
I2979
sI1183311
I1306
sI2887248
I5581
sI3018326
I7005
sI1183324
I1307
sI2887261
I5582
sI2395744
I3077
sI2887274
I5583
sI2887287
I5584
sI2887300
I5585
sI2887313
I5586
sI1871506
I1658
sI659100
I131
sI1904292
I1732
sI2887339
I5587
sI2231983
I2477
sI2887352
I5588
sI2264769
I2619
sI1052363
I296
sI2297555
I2750
sI2658006
I3817
sI2002650
I1954
sI2690779
I4115
sI1117921
I485
sI2658019
I3818
sI1150693
I1014
sI1150694
I1015
sI2690792
I4116
sI1183465
I1308
sI1183466
I1309
sI1183467
I1310
sI2185170
I2387
sI2756338
I4611
sI1150707
I1016
sI2690805
I4117
sI2363127
I2980
sI1183480
I1312
sI2887417
I5589
sI2756351
I4612
sI1183493
I1313
sI2887430
I5590
sI2395913
I3078
sI2756364
I4613
sI2887443
I5591
sI1890265
I1688
sI2756377
I4614
sI2887456
I5592
sI2887469
I5593
sI2887482
I5594
sI1871675
I1659
sI2199366
I2401
sI1904461
I1733
sI2887508
I5595
sI692055
I145
sI2887521
I5596
sI2264938
I2620
sI3097236
I7372
sI2334059
I2889
sI2297724
I2751
sI2002819
I1955
sI1085318
I310
sI2658188
I3819
sI2330510
I2871
sI2690961
I4118
sI2035605
I2037
sI2756507
I4615
sI1150876
I1017
sI2690974
I4119
sI1183648
I1314
sI1183649
I1315
sI1216420
I1463
sI1216421
I1464
sI1216422
I1465
sI2068391
I2116
sI2756520
I4616
sI1183662
I1316
sI2887599
I5597
sI1216434
I1466
sI1216435
I1467
sI2756533
I4617
sI2887612
I5598
sI1216448
I1468
sI2756546
I4618
sI3097249
I7373
sI2354508
I2936
sI2887638
I5600
sI2887651
I5601
sI2199535
I2402
sI1904630
I1734
sI2747732
I4552
sI2887677
I5602
sI2232321
I2478
sI1937416
I1804
sI2887690
I5603
sI725010
I159
sI2265107
I2621
sI2297893
I2752
sI2002988
I1956
sI2330679
I2872
sI2035774
I2038
sI2691143
I4120
sI2363465
I2981
sI3004429
I6770
sI2756689
I4619
sI1183831
I1317
sI2396251
I3080
sI1216604
I1470
sI2756702
I4620
sI2944357
I6020
sI2887781
I5604
sI1216617
I1471
sI2920554
I5881
sI2756715
I4621
sI2887794
I5605
sI2920567
I5882
sI2887807
I5606
sI2920580
I5883
sI2887820
I5607
sI2920593
I5884
sI2199704
I2403
sI3004442
I6773
sI2920606
I5885
sI2420080
I3122
sI2887846
I5608
sI2920619
I5886
sI1937585
I1805
sI2887859
I5609
sI2920645
I5887
sI757965
I172
sI2298062
I2753
sI2003157
I1957
sI2330848
I2873
sI2035943
I2039
sI3004455
I6775
sI2363634
I2982
sI2068729
I2117
sI2396420
I3081
sI2756871
I4622
sI2789644
I4855
sI1216786
I1472
sI2756884
I4623
sI2789657
I4856
sI2887963
I5610
sI2920736
I5888
sI2789670
I4857
sI2887976
I5611
sI2920749
I5889
sI2887989
I5612
sI3004468
I6776
sI2920762
I5890
sI2687711
I4052
sI1185845
I1334
sI2199873
I2404
sI2920775
I5891
sI2888015
I5613
sI2232659
I2479
sI2920788
I5892
sI397657
I21
sI2888028
I5614
sI2265445
I2622
sI2920814
I5893
sI2917096
I5843
sI2298231
I2754
sI2003326
I1958
sI790920
I186
sI2331017
I2874
sI2036112
I2040
sI2363803
I2983
sI2068898
I2118
sI2982641
I6630
sI2757053
I4624
sI2789826
I4858
sI1249741
I1546
sI2789839
I4859
sI2888145
I5615
sI2920918
I5894
sI2633124
I3625
sI2888158
I5616
sI2920931
I5895
sI2262065
I2605
sI2200042
I2405
sI2920944
I5896
sI2888184
I5617
sI2232828
I2480
sI2920957
I5897
sI2888197
I5618
sI2265614
I2623
sI2327299
I2855
sI430612
I35
sI2920983
I5898
sI2003495
I1959
sI2331186
I2875
sI2036281
I2041
sI823875
I200
sI2363972
I2984
sI2665910
I3903
sI2069067
I2119
sI2396758
I3082
sI2101853
I2193
sI1128385
I788
sI2658929
I3820
sI1118837
I486
sI1118838
I487
sI1118839
I488
sI1118840
I489
sI1118841
I490
sI1118842
I491
sI1118843
I492
sI1118844
I493
sI2658942
I3821
sI1118851
I494
sI1118852
I495
sI1118853
I496
sI1118854
I497
sI1118855
I498
sI1118856
I499
sI1118857
I500
sI2658955
I3822
sI2921100
I5899
sI1118865
I501
sI1118866
I502
sI2200211
I2406
sI1118868
I504
sI1118869
I505
sI1118870
I506
sI2658968
I3823
sI2921113
I5900
sI2953886
I6151
sI1118879
I507
sI1118880
I508
sI1118881
I509
sI1118882
I510
sI1118883
I511
sI2658981
I3824
sI2921126
I5901
sI2953899
I6152
sI1118893
I512
sI1118894
I513
sI1118895
I514
sI1118896
I515
sI2658994
I3825
sI2953912
I6153
sI1118907
I516
sI1118908
I517
sI1118909
I518
sI1970878
I1873
sI2659007
I3826
sI2921152
I5902
sI2953925
I6154
sI2298569
I2755
sI1118922
I520
sI2659020
I3827
sI1118935
I521
sI2659033
I3828
sI2331355
I2876
sI2036450
I2042
sI2611323
I3495
sI2364141
I2985
sI2069236
I2120
sI856830
I214
sI2396927
I3083
sI2102022
I2194
sI2659111
I3829
sI1119020
I522
sI1119021
I523
sI1119022
I524
sI1119023
I525
sI1119024
I526
sI1119025
I527
sI1119026
I528
sI2822963
I5084
sI2659124
I3830
sI1119034
I529
sI1119035
I530
sI1119036
I531
sI1119037
I532
sI1119038
I533
sI1119039
I534
sI2659137
I3831
sI2921282
I5903
sI2954055
I6155
sI1119048
I535
sI1119049
I536
sI1119050
I537
sI1119051
I538
sI1119052
I539
sI2659150
I3832
sI2921295
I5904
sI2628548
I3573
sI2954068
I6156
sI1119062
I540
sI1119063
I541
sI1119064
I542
sI1119065
I543
sI2659163
I3833
sI2265952
I2624
sI2954081
I6157
sI1119076
I544
sI1119077
I545
sI1119078
I546
sI1971047
I1874
sI2659176
I3834
sI2921321
I5905
sI2954094
I6158
sI1119090
I547
sI1119091
I548
sI2659189
I3835
sI1119104
I549
sI2659202
I3836
sI496522
I62
sI2364310
I2986
sI2069405
I2121
sI2397096
I3084
sI2102191
I2195
sI889785
I228
sI3097418
I7374
sI2659293
I3837
sI1119203
I550
sI1119204
I551
sI1119205
I552
sI1119206
I553
sI1119207
I554
sI1119208
I555
sI2659306
I3838
sI1119217
I556
sI1119218
I557
sI1119219
I558
sI1119220
I559
sI1119221
I560
sI2233335
I2483
sI2921464
I5906
sI2954237
I6159
sI1119231
I561
sI1119232
I562
sI1119233
I563
sI1119234
I564
sI2659332
I3840
sI2266121
I2625
sI2954250
I6160
sI1119245
I565
sI1119246
I566
sI1119247
I567
sI1971216
I1875
sI2659345
I3841
sI2921490
I5907
sI2954263
I6161
sI1119259
I568
sI1119260
I569
sI2659358
I3842
sI1119273
I570
sI2659371
I3843
sI2331693
I2877
sI2364479
I2987
sI529477
I76
sI2397265
I3085
sI2102360
I2196
sI922740
I242
sI2975686
I6423
sI2200718
I2409
sI2659475
I3844
sI2420249
I3123
sI1119386
I571
sI1119387
I572
sI1119388
I573
sI1119389
I574
sI1152158
I1018
sI1152159
I1019
sI1152160
I1020
sI1152161
I1021
sI1152162
I1022
sI1152163
I1023
sI1119400
I576
sI1119401
I577
sI1119402
I578
sI1119403
I579
sI1152172
I1024
sI2659501
I3846
sI1152174
I1026
sI1152175
I1027
sI1152176
I1028
sI2266290
I2626
sI2954419
I6162
sI1119414
I580
sI1119415
I581
sI1119416
I582
sI1152186
I1029
sI1152187
I1030
sI1152188
I1031
sI1152189
I1032
sI2954432
I6163
sI2987202
I6664
sI2987203
I6665
sI1119428
I583
sI1119429
I584
sI2659527
I3848
sI1152200
I1033
sI1152201
I1034
sI1152202
I1035
sI2004171
I1960
sI2987216
I6667
sI2987217
I6668
sI1119442
I585
sI2659540
I3849
sI1152214
I1036
sI1152215
I1037
sI2987230
I6669
sI2977710
I6482
sI3004624
I6785
sI1152228
I1038
sI2397434
I3086
sI562432
I90
sI2818569
I5080
sI1873196
I1660
sI955695
I256
sI2687880
I4059
sI2200887
I2410
sI2659657
I3850
sI1119569
I586
sI1119570
I587
sI1119571
I588
sI1119572
I589
sI1152341
I1039
sI2659670
I3851
sI1152343
I1041
sI1152344
I1042
sI1152345
I1043
sI2266459
I2627
sI1119583
I590
sI1119584
I591
sI1119585
I592
sI1971554
I1876
sI2659683
I3852
sI1152356
I1045
sI1152357
I1046
sI1152358
I1047
sI2856295
I5305
sI2954601
I6164
sI2299245
I2758
sI1119598
I594
sI2659696
I3853
sI1152369
I1048
sI1152370
I1049
sI1152371
I1050
sI2856308
I5306
sI2987385
I6670
sI2987386
I6671
sI1119611
I595
sI2659709
I3854
sI2332031
I2879
sI1152384
I1052
sI2856321
I5307
sI2987399
I6672
sI1152397
I1053
sI2856334
I5308
sI2364817
I2988
sI2856347
I5309
sI2982810
I6636
sI1218800
I1473
sI2397603
I3087
sI2856360
I5310
sI2856373
I5311
sI595387
I104
sI2168270
I2334
sI2856399
I5312
sI1873365
I1661
sI2944591
I6033
sI2856412
I5313
sI2201056
I2411
sI2856425
I5314
sI2233842
I2486
sI2659839
I3855
sI2266628
I2628
sI1119752
I596
sI2725385
I4369
sI1119754
I598
sI1971723
I1877
sI1152524
I1054
sI1152525
I1055
sI1152526
I1056
sI1152527
I1057
sI2299414
I2759
sI1119767
I600
sI2659865
I3857
sI1152538
I1058
sI1152539
I1059
sI1152540
I1060
sI2856477
I5315
sI2725411
I4371
sI1119780
I601
sI2659878
I3858
sI2332200
I2880
sI1152553
I1062
sI2856490
I5316
sI2725424
I4372
sI1152566
I1063
sI2856503
I5317
sI2364986
I2989
sI2666079
I3909
sI2725437
I4373
sI2856516
I5318
sI2725450
I4374
sI2856529
I5319
sI2856542
I5320
sI1125991
I751
sI2895464
I5709
sI628342
I118
sI2856568
I5321
sI1873534
I1662
sI2856581
I5322
sI2856594
I5323
sI2234011
I2487
sI1021605
I283
sI2266797
I2629
sI1971892
I1878
sI2660021
I3859
sI2299583
I2760
sI1119936
I603
sI2660034
I3860
sI1152707
I1064
sI1152708
I1065
sI1152709
I1066
sI2004678
I1962
sI1185479
I1318
sI1185480
I1319
sI1185481
I1320
sI1185482
I1321
sI2725580
I4376
sI1119949
I604
sI2660047
I3861
sI1152721
I1067
sI1152722
I1068
sI2856659
I5324
sI1185493
I1322
sI1185494
I1323
sI1185495
I1324
sI2037464
I2043
sI2725593
I4377
sI1152735
I1069
sI2856672
I5325
sI2365155
I2990
sI1185508
I1326
sI2725606
I4378
sI3020523
I7006
sI2856685
I5326
sI1185521
I1327
sI2725619
I4379
sI2397941
I3088
sI2856698
I5327
sI2856711
I5328
sI2305667
I2791
sI2856737
I5329
sI1873703
I1663
sI2856750
I5330
sI661297
I132
sI3006261
I6808
sI1906489
I1735
sI2856763
I5331
sI2234180
I2488
sI2266966
I2630
sI1972061
I1879
sI1054560
I297
sI2299752
I2761
sI2660203
I3862
sI2004847
I1963
sI2725749
I4380
sI1120118
I605
sI2660216
I3863
sI1152890
I1070
sI1152891
I1071
sI1185662
I1328
sI1185663
I1329
sI1185664
I1330
sI2725762
I4381
sI1152904
I1072
sI2856841
I5332
sI2365324
I2991
sI1185677
I1332
sI2889614
I5625
sI2725775
I4382
sI2856854
I5333
sI1185690
I1333
sI2889627
I5626
sI2725788
I4383
sI2398110
I3089
sI2856867
I5334
sI2889640
I5627
sI2856880
I5335
sI2835443
I5240
sI2889653
I5628
sI2889666
I5629
sI2856906
I5336
sI2889679
I5630
sI1873872
I1664
sI2856919
I5337
sI1906658
I1736
sI2856932
I5338
sI2889705
I5631
sI694252
I146
sI2889718
I5632
sI2267135
I2631
sI1972230
I1880
sI2299921
I2762
sI2005016
I1964
sI1087515
I311
sI3130373
I7438
sI2660385
I3864
sI2332707
I2882
sI2037802
I2044
sI2725931
I4384
sI2758704
I4625
sI1153073
I1073
sI2365493
I2992
sI1185846
I1335
sI2725944
I4385
sI2742623
I4453
sI2758717
I4626
sI2857023
I5339
sI1185859
I1336
sI2889796
I5633
sI2725957
I4386
sI2398279
I3090
sI2758730
I4627
sI2857036
I5340
sI2889809
I5634
sI2758743
I4628
sI2857049
I5341
sI2889822
I5635
sI2889835
I5636
sI2857075
I5342
sI2889848
I5637
sI2857088
I5343
sI2201732
I2412
sI3004780
I6789
sI1906827
I1737
sI2857101
I5344
sI2889874
I5638
sI2234518
I2489
sI2889887
I5639
sI727207
I160
sI2267304
I2632
sI1972399
I1881
sI2300090
I2763
sI2868255
I5494
sI2333045
I2884
sI2005185
I1965
sI2332876
I2883
sI2037971
I2045
sI3004793
I6791
sI2726113
I4387
sI2758886
I4629
sI2944721
I6037
sI1186028
I1337
sI2726126
I4388
sI2398448
I3091
sI1218801
I1474
sI2758899
I4630
sI2857205
I5345
sI1273556
I1569
sI2889978
I5640
sI1218814
I1475
sI2758912
I4631
sI2857218
I5346
sI1513733
I1600
sI2889991
I5641
sI2890004
I5642
sI1180719
I1227
sI2857244
I5347
sI2890017
I5643
sI3004806
I6792
sI2688049
I4065
sI2857257
I5348
sI2201901
I2413
sI2857270
I5349
sI2890043
I5644
sI2234687
I2490
sI3037579
I7134
sI1939782
I1806
sI2890056
I5645
sI1972568
I1882
sI760162
I173
sI2300259
I2764
sI2005354
I1966
sI2688062
I4066
sI2950207
I6128
sI2038140
I2046
sI2365831
I2993
sI2070926
I2122
sI3037592
I7135
sI2720835
I4343
sI2627989
I3545
sI2726295
I4389
sI2398617
I3092
sI2759068
I4632
sI2628002
I3546
sI1218983
I1476
sI2759081
I4633
sI2857387
I5350
sI2628015
I3547
sI2890160
I5646
sI2922933
I5909
sI2628028
I3548
sI2890173
I5647
sI2922946
I5910
sI1180747
I1238
sI2857413
I5351
sI2628041
I3549
sI2890186
I5648
sI2922959
I5911
sI2857426
I5352
sI2628054
I3550
sI2922972
I5912
sI2657122
I3794
sI2857439
I5353
sI2982992
I6641
sI2628067
I3551
sI2890212
I5649
sI2922985
I5913
sI399854
I22
sI2628080
I3552
sI2890225
I5650
sI2267642
I2633
sI2628093
I3553
sI3015765
I6994
sI1972737
I1883
sI2923011
I5914
sI2628106
I3554
sI2300428
I2765
sI2005523
I1967
sI793117
I187
sI2333214
I2885
sI2944773
I6041
sI2038309
I2047
sI2983005
I6642
sI2366000
I2994
sI2666248
I3914
sI2071095
I2123
sI2398786
I3093
sI2628171
I3555
sI2759250
I4634
sI2792023
I4861
sI2628184
I3556
sI2633488
I3636
sI2792036
I4862
sI2628197
I3557
sI2890342
I5651
sI2360423
I2966
sI2857582
I5354
sI2628210
I3558
sI2890355
I5652
sI2923128
I5916
sI2857595
I5355
sI2628223
I3559
sI2923141
I5917
sI2857608
I5356
sI2628236
I3560
sI2890381
I5653
sI2235025
I2491
sI2923154
I5918
sI2628249
I3561
sI2890394
I5654
sI2267811
I2634
sI2628262
I3562
sI2923180
I5919
sI2628275
I3563
sI2005692
I1968
sI1978145
I1903
sI2038478
I2048
sI826072
I201
sI2366169
I2995
sI2071264
I2124
sI2628353
I3564
sI2202070
I2414
sI2305836
I2792
sI2792205
I4863
sI2628366
I3565
sI2628379
I3566
sI2890524
I5655
sI2923297
I5920
sI2628392
I3567
sI2923310
I5921
sI2628405
I3568
sI2890550
I5656
sI2235194
I2492
sI2923323
I5922
sI2628418
I3569
sI2890563
I5657
sI2267980
I2635
sI2628431
I3570
sI2923349
I5923
sI2628444
I3571
sI2300766
I2766
sI2657135
I3795
sI465764
I49
sI2333552
I2887
sI2038647
I2049
sI2366338
I2996
sI2071433
I2125
sI859027
I215
sI2628535
I3572
sI1121217
I606
sI1121218
I607
sI1121219
I608
sI1121220
I609
sI1121221
I610
sI1121222
I611
sI1121223
I612
sI2857933
I5357
sI1121231
I613
sI1121232
I614
sI2628561
I3574
sI1121234
I616
sI1121235
I617
sI1121236
I618
sI2923479
I5924
sI2857946
I5358
sI2956252
I6165
sI1121245
I619
sI2628574
I3575
sI1121247
I621
sI1121248
I622
sI1121249
I623
sI2235363
I2493
sI2923492
I5925
sI2956265
I6166
sI2628587
I3576
sI1121260
I625
sI1121261
I626
sI1121262
I627
sI2956278
I6167
sI2628600
I3577
sI1121273
I628
sI1121274
I629
sI1121275
I630
sI1973244
I1884
sI2923518
I5926
sI2956291
I6168
sI2628613
I3578
sI2300935
I2767
sI1121288
I632
sI1121301
I633
sI498719
I63
sI2366507
I2997
sI2071602
I2126
sI891982
I229
sI2628717
I3579
sI1121400
I634
sI1121401
I635
sI2202746
I2418
sI1121403
I637
sI1121404
I638
sI1121405
I639
sI2858115
I5359
sI1121414
I640
sI2628743
I3581
sI1121416
I642
sI1121417
I643
sI1121418
I644
sI2235532
I2494
sI2923661
I5927
sI2956434
I6169
sI1121428
I645
sI1121429
I646
sI1121430
I647
sI1121431
I648
sI2268318
I2636
sI2956447
I6170
sI2628769
I3583
sI1121442
I649
sI1121443
I650
sI1121444
I651
sI1973413
I1885
sI2923687
I5928
sI2956460
I6171
sI2628782
I3584
sI2301104
I2768
sI1121457
I653
sI1121470
I654
sI2333890
I2888
sI2366676
I2998
sI531674
I77
sI3037735
I7138
sI2453373
I3201
sI2137343
I2266
sI924937
I243
sI2688218
I4070
sI2628899
I3585
sI2694445
I4121
sI1121583
I655
sI2628912
I3586
sI1121585
I657
sI1121586
I658
sI1121587
I659
sI2235701
I2495
sI3037748
I7140
sI2694458
I4122
sI2628925
I3587
sI1121598
I661
sI1121599
I662
sI1121600
I663
sI2694471
I4123
sI2956616
I6172
sI2628938
I3588
sI1121611
I664
sI1121612
I665
sI1121613
I666
sI2923856
I5929
sI2694484
I4124
sI2956629
I6173
sI2628951
I3589
sI2301273
I2769
sI1121626
I668
sI2694497
I4125
sI171366
I6
sI1121639
I669
sI2688231
I4071
sI2694510
I4126
sI2977684
I6471
sI2694523
I4127
sI3037761
I7141
sI2721004
I4349
sI564629
I91
sI2137512
I2267
sI2688244
I4072
sI2977697
I6477
sI2203084
I2420
sI2629081
I3590
sI2235870
I2496
sI2694627
I4128
sI2629094
I3591
sI1121767
I671
sI1121768
I672
sI1121769
I673
sI1154538
I1074
sI1154539
I1075
sI1154540
I1076
sI1154541
I1077
sI1154542
I1078
sI2694640
I4129
sI2629107
I3592
sI1121780
I674
sI2327806
I2857
sI1121782
I676
sI1973751
I1886
sI1154552
I1079
sI1154553
I1080
sI1154554
I1081
sI1154555
I1082
sI2694653
I4130
sI2956798
I6174
sI2629120
I3593
sI1121794
I677
sI1121795
I678
sI1154566
I1083
sI1154567
I1084
sI1154568
I1085
sI2006537
I1969
sI2694666
I4131
sI2989582
I6674
sI2989583
I6675
sI1121808
I679
sI2334228
I2890
sI1154581
I1087
sI2694679
I4132
sI2989596
I6676
sI2884869
I5526
sI1154594
I1088
sI2694692
I4133
sI2983174
I6643
sI2367014
I2999
sI597584
I105
sI1180944
I1260
sI1875562
I1665
sI2203253
I2421
sI990847
I270
sI2923115
I5915
sI2236039
I2497
sI2629263
I3594
sI2699203
I4170
sI2694809
I4134
sI2629276
I3595
sI1121949
I680
sI1121950
I681
sI1121951
I682
sI1973920
I1887
sI1154721
I1089
sI1154722
I1090
sI1154723
I1091
sI1154724
I1092
sI2694822
I4135
sI2629289
I3596
sI2301611
I2770
sI1121964
I684
sI1154735
I1093
sI1154736
I1094
sI1154737
I1095
sI2858674
I5360
sI2694835
I4136
sI1121977
I685
sI2334397
I2891
sI1154750
I1097
sI2858687
I5361
sI2694848
I4137
sI2989765
I6677
sI1154763
I1098
sI2858700
I5362
sI2694861
I4138
sI2367183
I3000
sI2858713
I5363
sI2858726
I5364
sI2858739
I5365
sI2202239
I2415
sI2306005
I2793
sI630539
I119
sI2858765
I5366
sI1875731
I1666
sI2858778
I5367
sI2858791
I5368
sI2236208
I2498
sI1023802
I284
sI2268994
I2640
sI2629445
I3597
sI1974089
I1888
sI2694991
I4139
sI2629458
I3598
sI2301780
I2771
sI1122133
I687
sI1154904
I1099
sI1154905
I1100
sI1154906
I1101
sI2006875
I1970
sI2695004
I4140
sI2727777
I4391
sI1122146
I688
sI2334566
I2892
sI1154919
I1103
sI2858856
I5369
sI2695017
I4141
sI2727790
I4392
sI1154932
I1104
sI2858869
I5370
sI2695030
I4142
sI2367352
I3001
sI2727803
I4393
sI2858882
I5371
sI2727816
I4394
sI2858895
I5372
sI2858908
I5373
sI2170805
I2335
sI2858934
I5374
sI1875900
I1667
sI2858947
I5375
sI663494
I133
sI2858960
I5376
sI2236377
I2499
sI2269163
I2641
sI1974258
I1889
sI1056757
I298
sI2629627
I3599
sI2301949
I2772
sI2007044
I1971
sI2695173
I4143
sI2727946
I4395
sI1122315
I689
sI1155087
I1105
sI1155088
I1106
sI2695186
I4144
sI1187859
I1338
sI1187860
I1339
sI1187861
I1340
sI2727959
I4396
sI1155101
I1107
sI2859038
I5377
sI2695199
I4145
sI1187873
I1341
sI1187874
I1342
sI2727972
I4397
sI2859051
I5378
sI1187887
I1343
sI2727985
I4398
sI2859064
I5379
sI2859077
I5380
sI2170974
I2336
sI2859103
I5381
sI1876069
I1668
sI2859116
I5382
sI1908855
I1738
sI2859129
I5383
sI696449
I147
sI2269332
I2642
sI1974427
I1890
sI2302118
I2773
sI2333383
I2886
sI2007213
I1972
sI1089712
I312
sI2334904
I2893
sI2695355
I4146
sI2039999
I2050
sI2728128
I4399
sI1155270
I1108
sI2695368
I4147
sI1188042
I1344
sI1188043
I1345
sI2728141
I4400
sI2859220
I5384
sI1188056
I1346
sI2891993
I5661
sI2728154
I4401
sI2859233
I5385
sI2892006
I5662
sI2859246
I5386
sI2892019
I5663
sI2892032
I5664
sI2171143
I2337
sI2859272
I5387
sI2892045
I5665
sI3005144
I6796
sI2859285
I5388
sI1909024
I1739
sI2859298
I5389
sI2892071
I5666
sI2236715
I2500
sI3037917
I7143
sI2892084
I5667
sI1273908
I1575
sI729404
I161
sI2269501
I2643
sI1974596
I1891
sI2302287
I2774
sI2007382
I1973
sI2335073
I2894
sI2040168
I2051
sI2695537
I4148
sI2367859
I3004
sI2728310
I4402
sI2761083
I4635
sI3037930
I7144
sI2295189
I2738
sI1188225
I1347
sI2728323
I4403
sI1178706
I1193
sI2761096
I4636
sI2859402
I5390
sI2892175
I5668
sI2886325
I5577
sI2761109
I4637
sI2859415
I5391
sI2892188
I5669
sI2892201
I5670
sI1181085
I1263
sI2171312
I2338
sI2859441
I5392
sI2892214
I5671
sI2977866
I6498
sI2859454
I5393
sI2204098
I2422
sI2859467
I5394
sI2892240
I5672
sI2236884
I2501
sI2892253
I5673
sI1148327
I927
sI1974765
I1892
sI762359
I174
sI2302456
I2775
sI2007551
I1974
sI2335242
I2895
sI2977879
I6503
sI2040337
I2052
sI2885038
I5535
sI2728492
I4404
sI2761265
I4638
sI1221180
I1477
sI2761278
I4639
sI2859584
I5395
sI2892357
I5674
sI2892370
I5675
sI2360761
I2968
sI2171481
I2339
sI2859610
I5396
sI2892383
I5676
sI2859623
I5397
sI2204267
I2423
sI2859636
I5398
sI2892409
I5677
sI2237053
I2502
sI2892422
I5678
sI2269839
I2644
sI1974934
I1893
sI2302625
I2776
sI2007720
I1975
sI795314
I188
sI2335411
I2896
sI2040506
I2053
sI2368197
I3005
sI2761447
I4640
sI2202408
I2416
sI2892539
I5679
sI2925312
I5930
sI2171650
I2340
sI2859779
I5399
sI2892552
I5680
sI2925325
I5931
sI2859792
I5400
sI2204436
I2424
sI2925338
I5932
sI2859805
I5401
sI2892578
I5681
sI2925351
I5933
sI1942317
I1807
sI2892591
I5682
sI2270008
I2645
sI435006
I36
sI2925377
I5934
sI2007889
I1976
sI2335580
I2897
sI1159312
I1132
sI2040675
I2054
sI828269
I202
sI2368366
I3006
sI2794402
I4864
sI2171819
I2341
sI2892721
I5683
sI2925494
I5935
sI2204605
I2425
sI2925507
I5936
sI2892747
I5684
sI2237391
I2503
sI2925520
I5937
sI1942486
I1808
sI2892760
I5685
sI2270177
I2646
sI2925546
I5938
sI2612051
I3509
sI467961
I50
sI2180607
I2375
sI2335749
I2898
sI2040844
I2055
sI2368535
I3007
sI861224
I216
sI2106416
I2197
sI2663505
I3865
sI2171988
I2342
sI2663518
I3866
sI2860130
I5402
sI2204774
I2426
sI2663531
I3867
sI2925676
I5939
sI2916901
I5840
sI2860143
I5403
sI2892916
I5686
sI2237560
I2504
sI2925689
I5940
sI2892929
I5687
sI2663557
I3869
sI2270346
I2647
sI2663570
I3870
sI2925715
I5941
sI2303132
I2778
sI2663583
I3871
sI2663596
I3872
sI500916
I64
sI2368704
I3008
sI2106585
I2198
sI894179
I230
sI2172157
I2343
sI2890719
I5658
sI2663687
I3873
sI1123597
I690
sI1123598
I691
sI1123599
I692
sI1123600
I693
sI1123601
I694
sI1123602
I695
sI2663700
I3874
sI2860312
I5404
sI1123611
I696
sI1123612
I697
sI1123613
I698
sI1123614
I699
sI1123615
I700
sI2237729
I2505
sI2925858
I5942
sI2958631
I6175
sI1942824
I1809
sI1123625
I701
sI1123626
I702
sI1123627
I703
sI1123628
I704
sI2663726
I3876
sI2715869
I4260
sI2958644
I6176
sI1123639
I705
sI1123640
I706
sI1123641
I707
sI1975610
I1894
sI2663739
I3877
sI2925884
I5943
sI2958657
I6177
sI1123653
I708
sI1123654
I709
sI2663752
I3878
sI1123667
I710
sI2663765
I3879
sI2336087
I2899
sI1152552
I1061
sI2368873
I3009
sI533871
I78
sI2106754
I2199
sI3070872
I7323
sI2172326
I2344
sI2205112
I2428
sI2663869
I3880
sI1123780
I711
sI1123781
I712
sI1123782
I713
sI1123783
I714
sI1123784
I715
sI2237898
I2506
sI1942993
I1810
sI1123794
I716
sI1123795
I717
sI1123796
I718
sI1123797
I719
sI2827734
I5085
sI2663895
I3882
sI2270684
I2648
sI2958813
I6178
sI3070885
I7324
sI1123808
I720
sI1123809
I721
sI1123810
I722
sI2827747
I5086
sI2663908
I3883
sI2926053
I5944
sI2958826
I6179
sI2303470
I2780
sI1123823
I724
sI2827760
I5087
sI2663921
I3884
sI1713660
I1607
sI2827773
I5088
sI2663934
I3885
sI2336256
I2900
sI2978048
I6518
sI2827786
I5089
sI1214040
I1443
sI2827799
I5090
sI2978052
I6522
sI566826
I92
sI2827825
I5091
sI2139709
I2268
sI2827838
I5092
sI2827851
I5093
sI2827864
I5094
sI960089
I257
sI2205281
I2429
sI2978065
I6526
sI2238067
I2507
sI2696824
I4149
sI1943162
I1811
sI1123963
I726
sI1123964
I727
sI1123965
I728
sI1123966
I729
sI2664064
I3887
sI2270853
I2649
sI1123977
I730
sI1123978
I731
sI1123979
I732
sI1975948
I1895
sI2664077
I3888
sI2696850
I4151
sI2958995
I6180
sI1123991
I733
sI1123992
I734
sI2451007
I3189
sI2664090
I3889
sI2696863
I4152
sI1124005
I735
sI2827942
I5097
sI2664103
I3890
sI2336425
I2901
sI2696876
I4153
sI2827955
I5098
sI2978078
I6529
sI1214068
I1450
sI2369211
I3010
sI2827968
I5099
sI2827994
I5100
sI599781
I106
sI2202577
I2417
sI2828020
I5102
sI2172664
I2345
sI2828033
I5103
sI2978091
I6531
sI2205450
I2430
sI993044
I271
sI2238236
I2508
sI1943331
I1812
sI2664233
I3891
sI2271022
I2650
sI1124146
I736
sI1124147
I737
sI1124148
I738
sI1976117
I1896
sI1156918
I1109
sI1156919
I1110
sI1156920
I1111
sI1156921
I1112
sI2697019
I4156
sI1124160
I739
sI1124161
I740
sI2828098
I5104
sI2664259
I3893
sI1156932
I1113
sI1156933
I1114
sI1156934
I1115
sI2697032
I4157
sI1124174
I741
sI2828111
I5105
sI2664272
I3894
sI2978104
I6532
sI1156946
I1116
sI1156947
I1117
sI2697045
I4158
sI1159481
I1135
sI2828124
I5106
sI1156960
I1118
sI2697058
I4159
sI2369380
I3011
sI2828137
I5107
sI2916927
I5841
sI2828163
I5108
sI2890732
I5659
sI2828176
I5109
sI2828189
I5110
sI632736
I120
sI1877928
I1669
sI2828202
I5111
sI2238405
I2509
sI1943500
I1813
sI1025999
I285
sI2271191
I2651
sI1976286
I1897
sI2664415
I3895
sI2697188
I4160
sI1124329
I742
sI1124330
I743
sI2664428
I3896
sI1157101
I1119
sI1157102
I1120
sI1157103
I1121
sI2009072
I1977
sI2606760
I3441
sI1124343
I744
sI2828280
I5112
sI2664441
I3897
sI1157115
I1122
sI1157116
I1123
sI2861053
I5405
sI2697214
I4162
sI2828293
I5113
sI1157129
I1124
sI2861066
I5406
sI2697227
I4163
sI2369549
I3012
sI2828306
I5114
sI2861079
I5407
sI2861092
I5408
sI1121287
I631
sI2828332
I5115
sI2861105
I5409
sI2828345
I5116
sI2828358
I5117
sI2861131
I5410
sI1878097
I1670
sI2828371
I5118
sI2861144
I5411
sI665691
I134
sI2861157
I5412
sI2238574
I2510
sI1943669
I1814
sI2271360
I2652
sI1976455
I1898
sI1058954
I299
sI2304146
I2783
sI2664597
I3898
sI2009241
I1978
sI2697370
I4164
sI2730143
I4405
sI1124512
I745
sI2664610
I3899
sI1157284
I1125
sI1157285
I1126
sI2697383
I4165
sI2730156
I4406
sI2828462
I5119
sI1157298
I1127
sI2861235
I5413
sI2697396
I4166
sI2369718
I3013
sI2730169
I4407
sI2828475
I5120
sI2861248
I5414
sI2730182
I4408
sI2861261
I5415
sI2828501
I5121
sI2861274
I5416
sI2828514
I5122
sI2828527
I5123
sI2173171
I2346
sI2861300
I5417
sI1878266
I1671
sI2828540
I5124
sI2861313
I5418
sI2861326
I5419
sI698646
I148
sI1943838
I1815
sI2271529
I2653
sI1976624
I1899
sI2304315
I2784
sI2009410
I1979
sI1091909
I313
sI2664779
I3900
sI2697552
I4167
sI2730325
I4409
sI1157467
I1128
sI2697565
I4168
sI1190239
I1348
sI1190240
I1349
sI2730338
I4410
sI2828644
I5125
sI2861417
I5420
sI1190253
I1350
sI2730351
I4411
sI1485172
I1599
sI2861430
I5421
sI2828670
I5126
sI2861443
I5422
sI2828683
I5127
sI2828696
I5128
sI2173340
I2347
sI2861469
I5423
sI2828709
I5129
sI2861482
I5424
sI1911221
I1740
sI2861495
I5425
sI2238912
I2511
sI1944007
I1816
sI731601
I162
sI2271698
I2654
sI3071054
I7325
sI1976793
I1900
sI2304484
I2785
sI2009579
I1980
sI2337270
I2905
sI2697734
I4169
sI2370056
I3015
sI2730507
I4412
sI1190422
I1351
sI2730520
I4413
sI2861599
I5426
sI2894372
I5689
sI2828839
I5130
sI2861612
I5427
sI2894385
I5690
sI2828852
I5131
sI2894398
I5691
sI2828865
I5132
sI2361099
I2969
sI2180438
I2374
sI2173509
I2348
sI2861638
I5428
sI2894411
I5692
sI2828878
I5133
sI2861651
I5429
sI2978234
I6536
sI2861664
I5430
sI2894437
I5693
sI2239081
I2512
sI1944176
I1817
sI2894450
I5694
sI1976962
I1901
sI764556
I175
sI2304653
I2786
sI2009748
I1981
sI2337439
I2906
sI2978246
I6538
sI2978247
I6539
sI2393885
I3068
sI2370225
I3016
sI2730689
I4414
sI2763462
I4641
sI2763475
I4642
sI2861781
I5431
sI2894554
I5695
sI2628730
I3580
sI2894567
I5696
sI2173678
I2349
sI2861807
I5432
sI3004247
I6751
sI2894580
I5697
sI2978260
I6541
sI2861820
I5433
sI2206464
I2431
sI3189510
I7458
sI2861833
I5434
sI2894606
I5698
sI2239250
I2513
sI3189523
I7459
sI404248
I23
sI2894619
I5699
sI2272036
I2655
sI1977131
I1902
sI2304822
I2787
sI2009917
I1982
sI797511
I189
sI2337608
I2907
sI2075489
I2127
sI2632565
I3600
sI2628756
I3582
sI2763644
I4643
sI2632578
I3601
sI2829190
I5134
sI2632591
I3602
sI2894736
I5700
sI2829203
I5135
sI2173847
I2350
sI2861976
I5435
sI2632604
I3603
sI2894749
I5701
sI2829216
I5136
sI2861989
I5436
sI2632617
I3604
sI2862002
I5437
sI2632630
I3605
sI2894775
I5702
sI2239419
I2514
sI3189692
I7460
sI2632643
I3606
sI2894788
I5703
sI2272205
I2656
sI2632656
I3607
sI437203
I37
sI2632669
I3608
sI2010086
I1983
sI2606929
I3446
sI2337777
I2908
sI830466
I203
sI2075658
I2128
sI1121456
I652
sI2632747
I3609
sI2632760
I3610
sI2829372
I5137
sI2174016
I2351
sI2632773
I3611
sI2894918
I5704
sI2829385
I5138
sI2927691
I5945
sI2632786
I3612
sI2639715
I3710
sI2927704
I5946
sI2632799
I3613
sI2894944
I5705
sI2927717
I5947
sI1944683
I1818
sI2632812
I3614
sI2894957
I5706
sI2272374
I2657
sI2632825
I3615
sI2927743
I5948
sI2632838
I3616
sI2305160
I2788
sI470158
I51
sI2337946
I2909
sI2075827
I2129
sI863421
I217
sI2632929
I3617
sI2174185
I2352
sI2632942
I3618
sI2829554
I5139
sI2862327
I5438
sI2206971
I2434
sI2927873
I5949
sI2862340
I5439
sI2632968
I3620
sI2895113
I5707
sI2239757
I2515
sI2927886
I5950
sI2632981
I3621
sI2895126
I5708
sI2272543
I2658
sI2632994
I3622
sI2927912
I5951
sI2633007
I3623
sI2305329
I2789
sI503113
I65
sI2075996
I2130
sI2108782
I2200
sI2174354
I2353
sI2633111
I3624
sI2665884
I3901
sI2207140
I2435
sI2665897
I3902
sI2862509
I5440
sI2657291
I3800
sI2633137
I3626
sI2239926
I2516
sI2928055
I5952
sI1945021
I1819
sI2633150
I3627
sI2665923
I3904
sI2272712
I2659
sI2633163
I3628
sI2665936
I3905
sI2928081
I5953
sI142805
I5
sI2633176
I3629
sI2305498
I2790
sI2665949
I3906
sI2665962
I3907
sI2338284
I2910
sI2972927
I6189
sI536068
I79
sI2108951
I2201
sI929331
I244
sI3104009
I7408
sI2174523
I2354
sI2207309
I2436
sI2972941
I6198
sI2666066
I3908
sI1125977
I746
sI1125978
I747
sI1125979
I748
sI1125980
I749
sI1125981
I750
sI2240095
I2517
sI1945190
I1820
sI2633319
I3632
sI1125992
I752
sI1125993
I753
sI1125994
I754
sI2666092
I3910
sI2961010
I6181
sI2633332
I3633
sI1126005
I755
sI1126006
I756
sI1126007
I757
sI2666105
I3911
sI2928250
I5954
sI2633293
I3630
sI2961023
I6182
sI2633345
I3634
sI1126019
I758
sI1126020
I759
sI2666118
I3912
sI1126033
I760
sI2666131
I3913
sI2338453
I2911
sI2394054
I3069
sI569023
I93
sI2202915
I2419
sI962286
I258
sI2207478
I2437
sI2633475
I3635
sI2240264
I2518
sI3011202
I6958
sI1945359
I1821
sI1126160
I761
sI1126161
I762
sI1126162
I763
sI1126163
I764
sI2666261
I3915
sI2273050
I2660
sI2633501
I3637
sI1126174
I765
sI1126175
I766
sI1126176
I767
sI2830113
I5140
sI2666274
I3916
sI2961192
I6183
sI2633514
I3638
sI1126188
I768
sI1126189
I769
sI2830126
I5141
sI2666287
I3917
sI2972979
I6215
sI2657304
I3801
sI1126202
I770
sI2830139
I5142
sI2666300
I3918
sI2338622
I2912
sI2830152
I5143
sI2830165
I5144
sI2830191
I5145
sI2891070
I5660
sI601978
I107
sI2830204
I5146
sI2830217
I5147
sI2174861
I2355
sI2830230
I5148
sI2207647
I2438
sI995241
I272
sI2268487
I2637
sI2240433
I2519
sI1945528
I1822
sI2633657
I3639
sI2666430
I3919
sI2273219
I2661
sI2633670
I3640
sI1126343
I771
sI1126344
I772
sI1126345
I773
sI1978314
I1904
sI2666443
I3920
sI2699216
I4171
sI2633683
I3641
sI1126357
I774
sI1126358
I775
sI2830295
I5149
sI2666456
I3921
sI2973007
I6224
sI2699229
I4172
sI1126371
I776
sI2830308
I5150
sI2666469
I3922
sI2338791
I2913
sI2699242
I4173
sI2830321
I5151
sI2699255
I4174
sI2830334
I5152
sI2633306
I3631
sI1121625
I667
sI2830360
I5153
sI2142244
I2269
sI2830373
I5154
sI2830386
I5155
sI634933
I121
sI2830399
I5156
sI2639884
I3715
sI2240602
I2520
sI1945697
I1823
sI1028196
I286
sI2568293
I3314
sI2273388
I2662
sI2633839
I3642
sI1978483
I1905
sI2666612
I3923
sI2699385
I4175
sI2633852
I3643
sI1126526
I777
sI1126527
I778
sI2666625
I3924
sI1159298
I1129
sI1159299
I1130
sI1159300
I1131
sI2699398
I4176
sI1126540
I779
sI2830477
I5157
sI2666638
I3925
sI2338960
I2914
sI1159313
I1133
sI2699411
I4177
sI2830490
I5158
sI1159326
I1134
sI2699424
I4178
sI2830503
I5159
sI2830529
I5160
sI3066491
I7269
sI2142413
I2270
sI2830542
I5161
sI2830555
I5162
sI1880294
I1672
sI2830568
I5163
sI667888
I135
sI2240771
I2521
sI1945866
I1824
sI2568462
I3315
sI2273557
I2663
sI1978652
I1906
sI2175706
I2357
sI1061151
I300
sI2634021
I3644
sI2306343
I2794
sI2666794
I3926
sI2699567
I4179
sI1126709
I780
sI2666807
I3927
sI2339129
I2915
sI1159482
I1136
sI2699580
I4180
sI2830659
I5164
sI1159495
I1137
sI2863432
I5441
sI2699593
I4181
sI2830672
I5165
sI2863445
I5442
sI2863458
I5443
sI2830698
I5166
sI2863471
I5444
sI2142582
I2271
sI2830711
I5167
sI2830724
I5168
sI2863497
I5445
sI1880463
I1673
sI2830737
I5169
sI2863510
I5446
sI2863523
I5447
sI700843
I149
sI1946035
I1825
sI2568631
I3316
sI2273726
I2664
sI1978821
I1907
sI2306512
I2795
sI1094106
I314
sI2666976
I3928
sI2339298
I2916
sI2699749
I4182
sI2732522
I4415
sI1159664
I1138
sI2699762
I4183
sI2732535
I4416
sI2830841
I5170
sI2863614
I5448
sI2732548
I4417
sI2863627
I5449
sI2830867
I5171
sI2863640
I5450
sI2142751
I2272
sI2830880
I5172
sI3158569
I7444
sI3158570
I7445
sI2830893
I5173
sI2175537
I2356
sI2863666
I5451
sI3158582
I7446
sI3158583
I7447
sI2830906
I5174
sI2863679
I5452
sI3158596
I7448
sI2863692
I5453
sI2973112
I6236
sI2241109
I2522
sI1946204
I1826
sI2568800
I3317
sI733798
I163
sI2273895
I2665
sI1978990
I1908
sI2306681
I2796
sI2973119
I6237
sI2044562
I2056
sI2601625
I3325
sI2699931
I4184
sI2732704
I4418
sI2601638
I3326
sI1192619
I1352
sI2732717
I4419
sI2601651
I3327
sI2863796
I5454
sI2831036
I5175
sI2601664
I3328
sI2863809
I5455
sI2142920
I2273
sI2831049
I5176
sI2601677
I3329
sI2831062
I5177
sI2601690
I3330
sI2863835
I5456
sI3158751
I7449
sI3158752
I7450
sI2831075
I5178
sI2978598
I6550
sI2601703
I3331
sI2863848
I5457
sI3158765
I7451
sI2656381
I3765
sI373490
I10
sI2601716
I3332
sI2863861
I5458
sI2241278
I2523
sI2601729
I3333
sI2323243
I2834
sI1946373
I1827
sI2427009
I3157
sI2568969
I3318
sI2601742
I3334
sI1979159
I1909
sI766753
I176
sI2306850
I2797
sI2973147
I6250
sI2978611
I6551
sI2339636
I2917
sI2044731
I2057
sI3011383
I6965
sI2601807
I3335
sI3011384
I6966
sI2732886
I4420
sI2601820
I3336
sI1121766
I670
sI2601833
I3337
sI2863978
I5459
sI2896751
I5710
sI2143089
I2274
sI2601846
I3338
sI2896764
I5711
sI2175875
I2358
sI2864004
I5460
sI2896777
I5712
sI2601872
I3340
sI2864017
I5461
sI3158934
I7452
sI3013568
I6984
sI1913756
I1741
sI2601885
I3341
sI2864030
I5462
sI3011397
I6967
sI2268656
I2638
sI2896803
I5713
sI2241447
I2524
sI2601898
I3342
sI406445
I24
sI2896816
I5714
sI2569138
I3319
sI2601911
I3343
sI2274233
I2666
sI1121781
I675
sI1979328
I1910
sI2307019
I2798
sI799708
I190
sI2339805
I2918
sI2044900
I2058
sI2601989
I3344
sI2765841
I4644
sI2602002
I3345
sI2143258
I2275
sI2831387
I5179
sI2602015
I3346
sI2896933
I5715
sI2831400
I5180
sI2176044
I2359
sI2864173
I5463
sI2896946
I5716
sI2831413
I5181
sI2602041
I3348
sI2864186
I5464
sI2208830
I2439
sI2602054
I3349
sI2864199
I5465
sI2896972
I5717
sI2241616
I2525
sI3191889
I7461
sI2602067
I3350
sI2896985
I5718
sI2569307
I3320
sI2602080
I3351
sI2274402
I2667
sI439400
I38
sI2656446
I3770
sI1154580
I1086
sI2339974
I2919
sI2045069
I2059
sI832663
I204
sI2077855
I2131
sI2602171
I3352
sI2634944
I3645
sI2143427
I2276
sI2602184
I3353
sI2634957
I3646
sI2831569
I5182
sI2602197
I3354
sI1122132
I686
sI2634970
I3647
sI2897115
I5719
sI2831582
I5183
sI2602210
I3355
sI2634983
I3648
sI1914094
I1742
sI2602223
I3356
sI2634996
I3649
sI2897141
I5720
sI2241785
I2526
sI2602236
I3357
sI2635009
I3650
sI2897154
I5721
sI2569476
I3321
sI2602249
I3358
sI2274571
I2668
sI2635022
I3651
sI2601859
I3339
sI2635035
I3652
sI2307357
I2799
sI472355
I52
sI2340143
I2920
sI2045238
I2060
sI2078024
I2132
sI2143596
I2277
sI2602353
I3359
sI2635126
I3653
sI2602366
I3360
sI2635139
I3654
sI2831751
I5184
sI2602379
I3361
sI2864524
I5466
sI2635152
I3655
sI2930070
I5955
sI1914263
I1743
sI2602392
I3362
sI2864537
I5467
sI2635165
I3656
sI2897310
I5722
sI2930083
I5956
sI2602405
I3363
sI2635178
I3657
sI2897323
I5723
sI2569645
I3322
sI2602418
I3364
sI2274740
I2669
sI2635191
I3658
sI2930109
I5957
sI2635204
I3659
sI2307526
I2800
sI1118867
I503
sI505310
I66
sI2078193
I2133
sI898573
I231
sI2602535
I3365
sI2635308
I3660
sI2602548
I3366
sI2209337
I2442
sI1914432
I1744
sI2602561
I3367
sI2864706
I5468
sI2799173
I4865
sI2635334
I3662
sI2242123
I2527
sI2930252
I5958
sI2602574
I3368
sI2799186
I4866
sI2635347
I3663
sI2569814
I3323
sI2602587
I3369
sI2274909
I2670
sI2799199
I4867
sI2635360
I3664
sI2930278
I5959
sI1685099
I1606
sI2799212
I4868
sI2635373
I3665
sI2307695
I2801
sI2799225
I4869
sI2340481
I2921
sI2716610
I4285
sI2799251
I4870
sI538265
I80
sI2799264
I4871
sI3066139
I7258
sI3066140
I7259
sI2111148
I2202
sI2799277
I4872
sI2799290
I4873
sI2143934
I2278
sI2799303
I4874
sI931528
I245
sI2176720
I2363
sI2716623
I4286
sI2602717
I3370
sI2635490
I3666
sI2668263
I3929
sI1914601
I1745
sI2602730
I3371
sI2635503
I3667
sI2668276
I3930
sI2602743
I3372
sI2799355
I4875
sI2635516
I3668
sI2427178
I3158
sI2569983
I3324
sI2668289
I3931
sI2602756
I3373
sI2275078
I2671
sI2799368
I4876
sI2635529
I3669
sI2668302
I3932
sI1116461
I325
sI2799381
I4877
sI2635542
I3670
sI2307864
I2802
sI2668315
I3933
sI2799394
I4878
sI2668328
I3934
sI2716636
I4287
sI2340650
I2922
sI2799420
I4879
sI2799433
I4880
sI1247544
I1545
sI571220
I94
sI2799446
I4881
sI1116474
I333
sI2799459
I4882
sI2144103
I2279
sI2885948
I5570
sI2799472
I4883
sI964483
I259
sI2209675
I2444
sI1914770
I1746
sI2602899
I3374
sI2268825
I2639
sI2635672
I3671
sI2668445
I3935
sI2602912
I3375
sI1947556
I1830
sI2635685
I3672
sI1128358
I782
sI1128359
I783
sI1128360
I784
sI2668458
I3936
sI2602925
I3376
sI2799537
I4884
sI2635698
I3673
sI1128371
I785
sI1128372
I786
sI1128373
I787
sI2668471
I3937
sI2963389
I6184
sI2799550
I4885
sI2635711
I3674
sI2308033
I2803
sI1128386
I789
sI2668484
I3938
sI2799563
I4886
sI1128399
I790
sI2668497
I3939
sI2340819
I2923
sI2799589
I4887
sI2799602
I4888
sI2951507
I6130
sI2799615
I4889
sI1121963
I683
sI2799628
I4890
sI604175
I108
sI2799641
I4891
sI2177058
I2364
sI2209844
I2445
sI1914939
I1747
sI997438
I273
sI2537535
I3292
sI2917070
I5842
sI2242630
I2530
sI2603081
I3377
sI1947725
I1831
sI2635854
I3675
sI2668627
I3940
sI2603094
I3378
sI2275416
I2672
sI2635867
I3676
sI1128540
I791
sI1128541
I792
sI1128542
I793
sI2668640
I3941
sI2799719
I4892
sI2635880
I3677
sI2308202
I2804
sI1128555
I795
sI2832492
I5185
sI2668653
I3942
sI1154749
I1096
sI2799732
I4893
sI1128568
I796
sI2832505
I5186
sI2668666
I3943
sI2340988
I2924
sI2832518
I5187
sI2799758
I4894
sI2832531
I5188
sI2799771
I4895
sI2886000
I5573
sI2799784
I4896
sI2832557
I5189
sI2799797
I4897
sI2832570
I5190
sI3006795
I6864
sI2799810
I4898
sI2832583
I5191
sI637130
I122
sI2832596
I5192
sI2336594
I2902
sI1915108
I1748
sI2537704
I3293
sI2242799
I2531
sI1947894
I1832
sI1030393
I287
sI428415
I34
sI2603263
I3379
sI2275585
I2673
sI2636036
I3678
sI2668809
I3944
sI2701582
I4185
sI2636049
I3679
sI2308371
I2805
sI1128724
I798
sI2668822
I3945
sI2701595
I4186
sI2799901
I4899
sI1128737
I799
sI2832674
I5193
sI2668835
I3946
sI2341157
I2925
sI2701608
I4187
sI2832687
I5194
sI2701621
I4188
sI2799927
I4900
sI2832700
I5195
sI2799940
I4901
sI3127628
I7410
sI3127629
I7411
sI3127630
I7412
sI2799953
I4902
sI2832726
I5196
sI3127641
I7413
sI3127642
I7414
sI3127643
I7415
sI2799966
I4903
sI2144610
I2280
sI2832739
I5197
sI3127655
I7416
sI3127656
I7417
sI2799979
I4904
sI2832752
I5198
sI3127669
I7418
sI2832765
I5199
sI3037566
I7132
sI670085
I136
sI1915277
I1749
sI2537873
I3294
sI2242968
I2532
sI1948063
I1833
sI2275754
I2674
sI1063348
I301
sI2636218
I3680
sI2668991
I3947
sI2013635
I1984
sI2701764
I4189
sI1128906
I800
sI2669004
I3948
sI1161678
I1139
sI1161679
I1140
sI2701777
I4190
sI2832856
I5200
sI1161692
I1141
sI2701790
I4191
sI2800096
I4905
sI2832869
I5201
sI2800109
I4906
sI2800122
I4907
sI2919267
I5878
sI2832895
I5202
sI3127810
I7419
sI3127811
I7420
sI3127812
I7421
sI2800135
I4908
sI2144779
I2281
sI2832908
I5203
sI3127824
I7422
sI3127825
I7423
sI2800148
I4909
sI2832921
I5204
sI3127838
I7424
sI1882660
I1674
sI2832934
I5205
sI1915446
I1750
sI2538042
I3295
sI703040
I150
sI1948232
I1834
sI3066296
I7263
sI2275923
I2675
sI1302286
I1586
sI2308709
I2806
sI2013804
I1985
sI1096303
I315
sI2669173
I3949
sI2341495
I2927
sI2701946
I4192
sI1161861
I1142
sI2701959
I4193
sI2833038
I5206
sI2865811
I5469
sI3066309
I7265
sI2865824
I5470
sI2833064
I5207
sI2865837
I5471
sI2144948
I2282
sI2833077
I5208
sI3127993
I7425
sI3127994
I7426
sI2833090
I5209
sI2865863
I5472
sI342732
I9
sI2973474
I6296
sI2833103
I5210
sI1209464
I1374
sI3006243
I6797
sI2865876
I5473
sI3006244
I6798
sI1915615
I1751
sI2865889
I5474
sI2538211
I3296
sI2243306
I2533
sI3066322
I7266
sI2749565
I4569
sI1948401
I1835
sI735995
I164
sI2276092
I2676
sI2308878
I2807
sI2013973
I1986
sI1209477
I1378
sI2341664
I2928
sI3006257
I6804
sI2702128
I4194
sI2734901
I4421
sI2800447
I4910
sI2734914
I4422
sI2865993
I5475
sI2800460
I4911
sI2833233
I5211
sI2787811
I4854
sI2866006
I5476
sI2800473
I4912
sI2145117
I2283
sI2833246
I5212
sI2800486
I4913
sI2833259
I5213
sI2177903
I2365
sI2866032
I5477
sI3160948
I7453
sI3160949
I7454
sI2833272
I5214
sI2866045
I5478
sI3160962
I7455
sI2913430
I5746
sI375687
I11
sI2866058
I5479
sI3011735
I6971
sI2538380
I3297
sI2243475
I2534
sI1948570
I1836
sI2886130
I5574
sI768950
I177
sI2309047
I2808
sI2014142
I1987
sI1209505
I1385
sI2046928
I2061
sI2604004
I3380
sI2951676
I6135
sI2735083
I4423
sI2604017
I3381
sI2800629
I4914
sI2727764
I4390
sI2604030
I3382
sI2866175
I5480
sI2800642
I4915
sI2145286
I2284
sI2604043
I3383
sI2800655
I4916
sI2604056
I3384
sI2866201
I5481
sI2604069
I3385
sI2866214
I5482
sI3161131
I7456
sI2604082
I3386
sI2866227
I5483
sI2538549
I3298
sI2243644
I2535
sI2604095
I3387
sI408642
I25
sI2886156
I5575
sI2604108
I3388
sI2276430
I2677
sI2973541
I6313
sI2309216
I2809
sI2656784
I3779
sI1154918
I1102
sI2014311
I1988
sI801905
I191
sI2047097
I2062
sI2886169
I5576
sI2604186
I3389
sI2604199
I3390
sI2800811
I4917
sI2145455
I2285
sI2833584
I5215
sI2604212
I3391
sI2800824
I4918
sI2899130
I5725
sI2833597
I5216
sI2604225
I3392
sI2866370
I5484
sI2899143
I5726
sI2833610
I5217
sI2604238
I3393
sI2866383
I5485
sI2604251
I3394
sI2866396
I5486
sI2538718
I3299
sI2899169
I5727
sI2243813
I2536
sI2604264
I3395
sI2899182
I5728
sI2604277
I3396
sI2276599
I2678
sI441597
I39
sI2176213
I2360
sI2014480
I1989
sI2047266
I2063
sI2296372
I2744
sI2604368
I3397
sI2145624
I2286
sI2604381
I3398
sI2800993
I4919
sI2833766
I5218
sI2604394
I3399
sI2208999
I2440
sI2312765
I2827
sI2899312
I5729
sI2833779
I5219
sI2604407
I3400
sI2211196
I2446
sI1916291
I1752
sI2604420
I3401
sI2538887
I3300
sI2899338
I5730
sI2243982
I2537
sI2604433
I3402
sI2899351
I5731
sI2604446
I3403
sI2276768
I2679
sI2976037
I6452
sI2309554
I2810
sI474552
I53
sI2047435
I2064
sI2080221
I2134
sI867815
I218
sI2145793
I2287
sI2604550
I3404
sI2637323
I3681
sI2604563
I3405
sI2637336
I3682
sI2833948
I5220
sI2604576
I3406
sI2866721
I5487
sI2637349
I3683
sI1916460
I1753
sI2604589
I3407
sI2866734
I5488
sI2539056
I3301
sI2637362
I3684
sI2899507
I5732
sI2244151
I2538
sI2604602
I3408
sI2637375
I3685
sI2899520
I5733
sI114244
I4
sI2604615
I3409
sI2276937
I2680
sI2637388
I3686
sI2637401
I3687
sI2309723
I2811
sI507507
I67
sI2080390
I2135
sI3066478
I7268
sI1302469
I1589
sI900770
I232
sI2604732
I3410
sI2637505
I3688
sI3004416
I6766
sI2604745
I3411
sI2637518
I3689
sI1916629
I1754
sI2604758
I3412
sI2866903
I5489
sI2637531
I3690
sI2932449
I5961
sI2604771
I3413
sI2749734
I4574
sI2637544
I3691
sI2604784
I3414
sI2277106
I2681
sI2637557
I3692
sI2932475
I5962
sI2637570
I3693
sI2309892
I2812
sI2716974
I4296
sI3006426
I6825
sI540462
I81
sI2146131
I2288
sI1185507
I1325
sI933725
I246
sI2178917
I2371
sI2604914
I3415
sI2637687
I3694
sI2913599
I5755
sI1916798
I1755
sI2604927
I3416
sI2637700
I3695
sI2244489
I2539
sI2604940
I3417
sI2801552
I4920
sI2637713
I3696
sI2899858
I5734
sI2604953
I3418
sI2277275
I2682
sI2801565
I4921
sI2637726
I3697
sI2932644
I5963
sI2801578
I4922
sI2637739
I3698
sI2310061
I2813
sI2801591
I4923
sI1209674
I1395
sI2801617
I4924
sI2801630
I4925
sI573417
I95
sI2801643
I4926
sI2801656
I4927
sI2146300
I2289
sI2801669
I4928
sI966680
I260
sI2506777
I3259
sI2211872
I2450
sI1916967
I1756
sI2605096
I3419
sI2539563
I3302
sI2637869
I3699
sI2244658
I2540
sI2605109
I3420
sI2637882
I3700
sI2670655
I3951
sI2605122
I3421
sI2277444
I2683
sI2801734
I4929
sI2637895
I3701
sI2670668
I3952
sI2801747
I4930
sI2637908
I3702
sI2310230
I2814
sI2230969
I2471
sI2670681
I3953
sI2801760
I4931
sI2670694
I3954
sI3096687
I7341
sI3096688
I7342
sI3096689
I7343
sI3096690
I7344
sI2801786
I4932
sI3096700
I7345
sI3096701
I7346
sI3096702
I7347
sI3096703
I7348
sI3006613
I6850
sI2801799
I4933
sI3096714
I7349
sI3096715
I7350
sI3096716
I7351
sI2886338
I5578
sI2113683
I2203
sI2801812
I4934
sI3096728
I7352
sI3096729
I7353
sI2801825
I4935
sI606372
I109
sI3096742
I7354
sI2801838
I4936
sI2976063
I6457
sI2179255
I2372
sI2506946
I3260
sI2367521
I3002
sI2212041
I2451
sI1917136
I1757
sI999635
I274
sI2539732
I3303
sI2244827
I2541
sI2605278
I3422
sI2638051
I3703
sI2670824
I3955
sI2605291
I3423
sI2638064
I3704
sI1130737
I801
sI1130738
I802
sI1130739
I803
sI1982708
I1911
sI2670837
I3956
sI2801916
I4937
sI2638077
I3705
sI1130751
I804
sI1130752
I805
sI2670850
I3957
sI2801929
I4938
sI1130765
I806
sI2670863
I3958
sI2980431
I6592
sI2801955
I4939
sI3096869
I7355
sI3096870
I7356
sI3096871
I7357
sI3096872
I7358
sI1116893
I427
sI2801968
I4940
sI3096883
I7359
sI3096884
I7360
sI3096885
I7361
sI2113852
I2204
sI2801981
I4941
sI3096897
I7362
sI3096898
I7363
sI2801994
I4942
sI3096911
I7364
sI2802007
I4943
sI639327
I123
sI2209168
I2441
sI2507115
I3261
sI1917305
I1758
sI2539901
I3304
sI2244996
I2542
sI1032590
I288
sI2605460
I3424
sI2277782
I2684
sI2638233
I3706
sI1982877
I1912
sI2671006
I3959
sI2638246
I3707
sI1130920
I807
sI1130921
I808
sI2671019
I3960
sI2802098
I4944
sI1130934
I809
sI2834871
I5221
sI2671032
I3961
sI2834884
I5222
sI2802124
I4945
sI2834897
I5223
sI2802137
I4946
sI3097052
I7365
sI3097053
I7366
sI3097054
I7367
sI2114021
I2205
sI2802150
I4947
sI3097066
I7368
sI2834923
I5224
sI2802163
I4948
sI2834936
I5225
sI2802176
I4949
sI2834949
I5226
sI2834962
I5227
sI2507284
I3262
sI672282
I137
sI1917474
I1759
sI2540070
I3305
sI2245165
I2543
sI2976076
I6458
sI2277951
I2685
sI1983046
I1913
sI1065545
I302
sI2638415
I3708
sI2310737
I2817
sI2671188
I3962
sI2703961
I4195
sI1131103
I810
sI2671201
I3963
sI2703974
I4196
sI2835053
I5228
sI2703987
I4197
sI2802293
I4950
sI2835066
I5229
sI2802306
I4951
sI2114190
I2206
sI2802319
I4952
sI3097235
I7371
sI2835092
I5230
sI2744430
I4480
sI3130007
I7429
sI3130008
I7430
sI3130009
I7431
sI2802332
I4953
sI2146976
I2290
sI2835105
I5231
sI3130021
I7432
sI3130022
I7433
sI2802345
I4954
sI2835118
I5232
sI3130035
I7434
sI2835131
I5233
sI2507453
I3263
sI3037184
I7090
sI1917643
I1760
sI2540239
I3306
sI705237
I151
sI3066660
I7270
sI2278120
I2686
sI1983215
I1914
sI3099433
I7392
sI2016001
I1990
sI1098500
I316
sI2671370
I3964
sI2704143
I4198
sI1164058
I1143
sI2704156
I4199
sI2835235
I5234
sI2114359
I2207
sI2835261
I5235
sI3099446
I7393
sI2356705
I2947
sI2147145
I2291
sI2835274
I5236
sI3130190
I7435
sI3130191
I7436
sI2835287
I5237
sI3130204
I7437
sI2835300
I5238
sI2507622
I3264
sI1917812
I1761
sI1242601
I1512
sI2540408
I3307
sI2245503
I2544
sI738192
I165
sI2278289
I2687
sI1983384
I1915
sI2311075
I2818
sI2016170
I1991
sI2704325
I4200
sI3006626
I6854
sI2802644
I4955
sI2868190
I5490
sI2114528
I2208
sI2802657
I4956
sI2835430
I5239
sI2868203
I5491
sI1117010
I434
sI2802670
I4957
sI2147314
I2292
sI1149779
I935
sI2802683
I4958
sI1149781
I937
sI2835456
I5241
sI2868229
I5492
sI2835469
I5242
sI2507791
I3265
sI2868242
I5493
sI3006639
I6857
sI377884
I12
sI1242629
I1519
sI2540577
I3308
sI2980457
I6597
sI2245672
I2545
sI1117024
I440
sI771147
I178
sI2311244
I2819
sI1149794
I943
sI2016339
I1992
sI3006652
I6859
sI2984824
I6646
sI2737280
I4424
sI2114697
I2209
sI2802826
I4959
sI2984825
I6647
sI2868372
I5495
sI2802839
I4960
sI2147483
I2293
sI2802852
I4961
sI2180269
I2373
sI2868398
I5496
sI1885364
I1675
sI3006665
I6860
sI2507960
I3266
sI2263924
I2614
sI2868411
I5497
sI2367690
I3003
sI2952053
I6145
sI3163328
I7457
sI2868424
I5498
sI2540746
I3309
sI2245841
I2546
sI410839
I26
sI2278627
I2688
sI2657148
I3796
sI1983722
I1917
sI2176551
I2362
sI2919293
I5879
sI2311413
I2820
sI2016508
I1993
sI2049294
I2065
sI2984838
I6650
sI2606383
I3425
sI2114866
I2210
sI2606396
I3426
sI2803008
I4962
sI2147652
I2294
sI2835781
I5243
sI2606409
I3427
sI2803021
I4963
sI2835794
I5244
sI2606422
I3428
sI2635321
I3661
sI1885533
I1676
sI2835807
I5245
sI2508129
I3267
sI2606435
I3429
sI2868580
I5500
sI2606448
I3430
sI2868593
I5501
sI2540915
I3310
sI2246010
I2547
sI2606461
I3431
sI2606474
I3432
sI2278796
I2689
sI1149848
I959
sI443794
I40
sI2016677
I1994
sI2980470
I6598
sI2049463
I2066
sI837057
I205
sI2606565
I3433
sI2147821
I2295
sI2606578
I3434
sI2803190
I4964
sI2835963
I5246
sI2606591
I3435
sI2901509
I5735
sI1885702
I1677
sI2835976
I5247
sI2606604
I3436
sI2606617
I3437
sI2541084
I3311
sI2901535
I5736
sI2246179
I2548
sI2606630
I3438
sI2901548
I5737
sI2606643
I3439
sI2278965
I2690
sI2311751
I2821
sI476749
I54
sI2049632
I2067
sI2613520
I3510
sI870012
I219
sI2115204
I2211
sI2147990
I2296
sI2606747
I3440
sI2180776
I2376
sI1885871
I1678
sI2836145
I5248
sI2770612
I4645
sI2606773
I3442
sI2868918
I5502
sI2213562
I2452
sI2770625
I4646
sI2606786
I3443
sI2868931
I5503
sI2541253
I3312
sI2901704
I5738
sI2246348
I2549
sI2770638
I4647
sI2606799
I3444
sI2901717
I5739
sI1656538
I1605
sI2770651
I4648
sI2606812
I3445
sI2279134
I2691
sI2311920
I2822
sI2770677
I4649
sI2770690
I4650
sI509704
I68
sI2770703
I4651
sI2082587
I2136
sI2770716
I4652
sI2770729
I4653
sI2115373
I2212
sI2770742
I4654
sI902967
I233
sI3099615
I7394
sI2180945
I2377
sI2639702
I3709
sI1886040
I1679
sI2508636
I3268
sI2606942
I3447
sI2213731
I2453
sI2770794
I4655
sI2606955
I3448
sI2869100
I5504
sI2639728
I3711
sI2246517
I2550
sI2770807
I4656
sI2606968
I3449
sI2639741
I3712
sI2770820
I4657
sI2606981
I3450
sI2279303
I2692
sI2639754
I3713
sI3065746
I7216
sI3065747
I7217
sI3065748
I7218
sI3065749
I7219
sI3065750
I7220
sI2639767
I3714
sI2312089
I2823
sI2770846
I4658
sI3065759
I7221
sI3065760
I7222
sI3065761
I7223
sI3065762
I7224
sI3065763
I7225
sI1210012
I1404
sI2770859
I4659
sI3065773
I7226
sI3065774
I7227
sI3065775
I7228
sI3065776
I7229
sI2770872
I4660
sI3065787
I7230
sI3065788
I7231
sI3065789
I7232
sI542659
I82
sI2770885
I4661
sI3065801
I7233
sI3065802
I7234
sI2770898
I4662
sI2115542
I2213
sI3065815
I7235
sI2770911
I4663
sI2148328
I2297
sI935922
I247
sI2476019
I3215
sI2181114
I2378
sI1886209
I1680
sI2508805
I3269
sI2607111
I3451
sI2213900
I2454
sI3006808
I6867
sI2607124
I3452
sI1242798
I1525
sI2541591
I3313
sI2639897
I3716
sI2770976
I4664
sI2607137
I3453
sI1951781
I1837
sI2639910
I3717
sI2902055
I5740
sI2770989
I4665
sI2607150
I3454
sI2279472
I2693
sI2639923
I3718
sI1149961
I962
sI2934841
I5964
sI2639936
I3719
sI2312258
I2824
sI1149963
I964
sI2771015
I4666
sI3065928
I7236
sI3065929
I7237
sI3065930
I7238
sI3065931
I7239
sI3065932
I7240
sI2771028
I4667
sI3065942
I7241
sI3065943
I7242
sI3065944
I7243
sI3065945
I7244
sI3006821
I6869
sI2771041
I4668
sI3065956
I7245
sI3065957
I7246
sI3065958
I7247
sI2771054
I4669
sI3065970
I7248
sI3065971
I7249
sI2886676
I5579
sI2771067
I4670
sI575614
I96
sI3065984
I7250
sI2771080
I4671
sI2148497
I2298
sI2476188
I3216
sI2913989
I5774
sI1886378
I1681
sI968877
I261
sI2508974
I3270
sI2264093
I2615
sI2214069
I2455
sI2607293
I3455
sI2640066
I3720
sI2246855
I2551
sI2607306
I3456
sI1951950
I1838
sI2640079
I3721
sI2771158
I4672
sI2607319
I3457
sI2279641
I2694
sI2328144
I2859
sI2803931
I4965
sI2640092
I3722
sI1149989
I973
sI2919462
I5880
sI2803944
I4966
sI2640105
I3723
sI2312427
I2825
sI2771184
I4673
sI2803957
I4967
sI2771197
I4674
sI3066111
I7251
sI3066112
I7252
sI3066113
I7253
sI3066114
I7254
sI2771210
I4675
sI3066125
I7255
sI3066126
I7256
sI2803983
I4968
sI2771223
I4676
sI1117231
I463
sI2803996
I4969
sI2771236
I4677
sI2804009
I4970
sI2771249
I4678
sI2804022
I4971
sI608569
I110
sI2804035
I4972
sI2476357
I3217
sI2181452
I2379
sI2209506
I2443
sI1886547
I1682
sI2509143
I3271
sI2214238
I2456
sI1001832
I275
sI2247024
I2552
sI2607475
I3458
sI1952119
I1839
sI2640248
I3724
sI2673021
I3965
sI2607488
I3459
sI2279810
I2695
sI2640261
I3725
sI1150017
I980
sI2673034
I3966
sI2804113
I4973
sI2640274
I3726
sI2312596
I2826
sI2673047
I3967
sI2771353
I4679
sI2804126
I4974
sI2673060
I3968
sI2771366
I4680
sI2771379
I4681
sI3066294
I7261
sI3066295
I7262
sI2804152
I4975
sI2242292
I2528
sI3099066
I7375
sI3099067
I7376
sI3099068
I7377
sI3099069
I7378
sI2771392
I4682
sI3066308
I7264
sI2804165
I4976
sI3099080
I7379
sI3099081
I7380
sI3099082
I7381
sI2771405
I4683
sI2116049
I2214
sI2804178
I4977
sI3099094
I7382
sI3099095
I7383
sI2771418
I4684
sI2804191
I4978
sI1947387
I1829
sI3099108
I7384
sI2804204
I4979
sI2476526
I3218
sI2897661
I5724
sI641524
I124
sI1886716
I1683
sI2509312
I3272
sI2247193
I2553
sI1952288
I1840
sI1034787
I289
sI2607657
I3460
sI2640430
I3727
sI1985074
I1918
sI2673203
I3969
sI2640443
I3728
sI1133117
I811
sI1133118
I812
sI2673216
I3970
sI2804295
I4980
sI1133131
I813
sI2673229
I3971
sI2930447
I5960
sI2804321
I4981
sI3066477
I7267
sI2804334
I4982
sI3099249
I7385
sI3099250
I7386
sI3099251
I7387
sI2116218
I2215
sI2804347
I4983
sI3099263
I7388
sI3099264
I7389
sI2804360
I4984
sI3099277
I7390
sI2804373
I4985
sI2476695
I3219
sI1886885
I1684
sI2509481
I3273
sI674479
I138
sI2247362
I2554
sI1952457
I1841
sI2280148
I2696
sI1985243
I1919
sI1067742
I303
sI2640612
I3729
sI2312934
I2828
sI2673385
I3972
sI1133300
I814
sI2673398
I3973
sI2771704
I4685
sI2837250
I5249
sI2771717
I4686
sI2804490
I4986
sI2837263
I5250
sI2771730
I4687
sI1121584
I656
sI2804503
I4987
sI2771743
I4688
sI2116387
I2216
sI2804516
I4988
sI3099432
I7391
sI2837289
I5251
sI2771756
I4689
sI2804529
I4989
sI2837302
I5252
sI2804542
I4990
sI2476864
I3220
sI2837315
I5253
sI1887054
I1685
sI2837328
I5254
sI2509650
I3274
sI1947218
I1828
sI1121233
I615
sI707434
I152
sI1952626
I1842
sI2280317
I2697
sI1985412
I1920
sI2313103
I2829
sI1100697
I317
sI2673567
I3974
sI2706340
I4201
sI2771886
I4690
sI2706353
I4202
sI2837432
I5255
sI2771899
I4691
sI2310568
I2816
sI2771912
I4692
sI2116556
I2217
sI2837458
I5256
sI2771925
I4693
sI2149342
I2299
sI2837471
I5257
sI3132387
I7439
sI3132388
I7440
sI2477033
I3221
sI2837484
I5258
sI3132401
I7441
sI2837497
I5259
sI2509819
I3275
sI3006977
I6873
sI2422615
I3135
sI2247700
I2555
sI1952795
I1843
sI2280486
I2698
sI2885597
I5560
sI1985581
I1921
sI2231476
I2474
sI2018367
I1995
sI3006990
I6875
sI2706522
I4203
sI2772068
I4694
sI2804841
I4991
sI2772081
I4695
sI3039763
I7167
sI2116725
I2218
sI2804854
I4992
sI2837627
I5260
sI2772094
I4696
sI2804867
I4993
sI2149511
I2300
sI2837640
I5261
sI2804880
I4994
sI2477202
I3222
sI2837653
I5262
sI3132570
I7442
sI2837666
I5263
sI3007003
I6876
sI2509988
I3276
sI2264262
I2616
sI380081
I13
sI3039775
I7168
sI2247869
I2556
sI1952964
I1844
sI1150158
I988
sI1985750
I1922
sI2018536
I1996
sI2297048
I2747
sI2772250
I4697
sI2116894
I2219
sI2805023
I4995
sI2772263
I4698
sI2870569
I5505
sI2805036
I4996
sI2149680
I2301
sI2805049
I4997
sI2870595
I5506
sI2510157
I3277
sI2870608
I5507
sI2870621
I5508
sI2248038
I2557
sI413036
I27
sI2280824
I2699
sI1150186
I995
sI1985919
I1923
sI2018705
I1997
sI806299
I192
sI2946970
I6077
sI2242461
I2529
sI2117063
I2220
sI2772432
I4699
sI2805205
I4998
sI2149849
I2302
sI2837978
I5264
sI1128357
I781
sI2805218
I4999
sI2837991
I5265
sI2182635
I2380
sI2870764
I5509
sI2838004
I5266
sI2510326
I3278
sI2870777
I5510
sI2870790
I5511
sI2248207
I2558
sI2280993
I2700
sI445991
I41
sI2018874
I1998
sI2051660
I2068
sI839254
I206
sI1121259
I624
sI2176382
I2361
sI2608762
I3461
sI2150018
I2303
sI2608775
I3462
sI2805387
I5000
sI2477709
I3223
sI2838160
I5267
sI2182804
I2381
sI2838173
I5268
sI2608801
I3464
sI2608814
I3465
sI85683
I3
sI3034805
I7007
sI3034806
I7008
sI3034807
I7009
sI2248376
I2559
sI3034809
I7011
sI3034810
I7012
sI2608827
I3466
sI3034818
I7013
sI3034819
I7014
sI3034820
I7015
sI3034821
I7016
sI3034822
I7017
sI3034823
I7018
sI2608840
I3467
sI2281162
I2701
sI3034832
I7019
sI3034833
I7020
sI3034834
I7021
sI3034835
I7022
sI3034836
I7023
sI3034846
I7024
sI3034847
I7025
sI3034848
I7026
sI3034849
I7027
sI478946
I55
sI3034860
I7028
sI3034861
I7029
sI3034862
I7030
sI2051829
I2069
sI3034874
I7031
sI3034875
I7032
sI3034888
I7033
sI872209
I220
sI2117401
I2221
sI2917265
I5844
sI2150187
I2304
sI2608944
I3468
sI2477878
I3224
sI2608957
I3469
sI2838342
I5269
sI2510664
I3279
sI2608970
I3470
sI2871115
I5512
sI1920854
I1762
sI2608983
I3471
sI2871128
I5513
sI2903901
I5741
sI2248545
I2560
sI2608996
I3472
sI2903914
I5742
sI3034987
I7034
sI3034988
I7035
sI3034989
I7036
sI3034990
I7037
sI3034991
I7038
sI3034992
I7039
sI2609009
I3473
sI2281331
I2702
sI3035001
I7040
sI3035002
I7041
sI3035003
I7042
sI3035004
I7043
sI3035005
I7044
sI3035015
I7045
sI3035016
I7046
sI3035017
I7047
sI3035018
I7048
sI3035029
I7049
sI3035030
I7050
sI3035031
I7051
sI511901
I69
sI3035043
I7052
sI3035044
I7053
sI3035057
I7054
sI2117570
I2222
sI905164
I234
sI2445261
I3160
sI2478047
I3225
sI2183142
I2383
sI2609139
I3475
sI2215928
I2457
sI2772991
I4700
sI2609152
I3476
sI2871297
I5514
sI2248714
I2561
sI2773004
I4701
sI2609165
I3477
sI2773017
I4702
sI2609178
I3478
sI2281500
I2703
sI3035170
I7055
sI3035171
I7056
sI3035172
I7057
sI3035173
I7058
sI3035174
I7059
sI3035184
I7060
sI3035185
I7061
sI3035186
I7062
sI2773043
I4703
sI3035198
I7064
sI3035199
I7065
sI2773056
I4704
sI3035212
I7067
sI2773069
I4705
sI544856
I83
sI2773082
I4706
sI2773095
I4707
sI3039932
I7173
sI2117739
I2223
sI1275922
I1576
sI2773108
I4708
sI2947828
I6098
sI2445430
I3161
sI2150525
I2305
sI938119
I248
sI2478216
I3226
sI2183311
I2384
sI2511002
I3280
sI2690415
I4106
sI2609308
I3479
sI2216097
I2458
sI1921192
I1764
sI2609321
I3480
sI2642094
I3731
sI2248883
I2562
sI2773173
I4709
sI2609334
I3481
sI3039945
I7175
sI2642107
I3732
sI2904252
I5743
sI2773186
I4710
sI2609347
I3482
sI2281669
I2704
sI2642120
I3733
sI2657655
I3811
sI2642133
I3734
sI3035353
I7070
sI3035354
I7071
sI3035355
I7072
sI2773212
I4711
sI3068125
I7271
sI3068126
I7272
sI3068127
I7273
sI3068128
I7274
sI3068129
I7275
sI3035367
I7074
sI3035368
I7075
sI2773225
I4712
sI3068139
I7276
sI3068140
I7277
sI3068141
I7278
sI3068142
I7279
sI3035381
I7077
sI2773238
I4713
sI3068153
I7280
sI3068154
I7281
sI3068155
I7282
sI2085122
I2137
sI2773251
I4714
sI3039958
I7176
sI2297217
I2748
sI2974020
I6339
sI2773264
I4715
sI577811
I97
sI3068181
I7285
sI2773277
I4716
sI2445599
I3162
sI2150694
I2306
sI2478385
I3227
sI2690441
I4108
sI971074
I262
sI2511171
I3281
sI2216266
I2459
sI1921361
I1765
sI2609490
I3483
sI2642263
I3735
sI2609503
I3484
sI1954147
I1845
sI2642276
I3736
sI2773355
I4717
sI2609516
I3485
sI2281838
I2705
sI2642289
I3737
sI2642302
I3738
sI2773381
I4718
sI3035536
I7080
sI3035537
I7081
sI2773394
I4719
sI3068308
I7286
sI3068309
I7287
sI3068310
I7288
sI3068311
I7289
sI3035550
I7083
sI2773407
I4720
sI3068322
I7290
sI3068323
I7291
sI3068324
I7292
sI2085291
I2138
sI2773420
I4721
sI3068336
I7293
sI3068337
I7294
sI2773433
I4722
sI3068350
I7295
sI2773446
I4723
sI2445768
I3163
sI610766
I111
sI2478554
I3228
sI2362789
I2978
sI2183649
I2385
sI2511340
I3282
sI2216435
I2460
sI1921530
I1766
sI1004029
I276
sI2249221
I2563
sI2609672
I3486
sI1954316
I1846
sI2642445
I3739
sI2609685
I3487
sI2282007
I2706
sI2642458
I3740
sI2806310
I5001
sI2642471
I3741
sI2773550
I4724
sI2806323
I5002
sI2773563
I4725
sI3035719
I7086
sI2773576
I4726
sI3068491
I7296
sI3068492
I7297
sI2806349
I5003
sI2085460
I2139
sI2773589
I4727
sI3068505
I7299
sI2806362
I5004
sI2773602
I4728
sI2806375
I5005
sI2773615
I4729
sI2445937
I3164
sI2806388
I5006
sI1128554
I794
sI2806401
I5007
sI2478723
I3229
sI643721
I125
sI2511509
I3283
sI1921699
I1767
sI2249390
I2564
sI1121597
I660
sI1954485
I1847
sI1036984
I290
sI2609854
I3488
sI2282176
I2707
sI2642627
I3742
sI2675400
I3975
sI2642640
I3743
sI2675413
I3976
sI2806492
I5008
sI2675426
I3977
sI2806518
I5009
sI2085629
I2140
sI3035902
I7089
sI3068674
I7302
sI2806531
I5010
sI3101446
I7395
sI3101447
I7396
sI3101448
I7397
sI2118415
I2224
sI2806544
I5011
sI3101460
I7398
sI3101461
I7399
sI2446106
I3165
sI2806557
I5012
sI3101474
I7400
sI2806570
I5013
sI2478892
I3230
sI2511678
I3284
sI676676
I139
sI1921868
I1768
sI2249559
I2565
sI1954654
I1848
sI1987440
I1924
sI1069939
I304
sI2642809
I3744
sI2675582
I3978
sI2675595
I3979
sI2773901
I4730
sI2773914
I4731
sI2806687
I5014
sI2085798
I2141
sI2773927
I4732
sI2806700
I5015
sI2773940
I4733
sI2118584
I2225
sI2806713
I5016
sI3101629
I7401
sI3101630
I7402
sI2773953
I4734
sI2446275
I3166
sI2806726
I5017
sI3101643
I7403
sI2806739
I5018
sI2479061
I3231
sI2511847
I3285
sI1922037
I1769
sI1954823
I1849
sI2282514
I2708
sI1987609
I1925
sI3004598
I6780
sI1102894
I318
sI2675764
I3980
sI2774083
I4735
sI2839629
I5270
sI2085967
I2142
sI2774096
I4736
sI2774109
I4737
sI2118753
I2226
sI2839655
I5271
sI2774122
I4738
sI2839668
I5272
sI2479230
I3232
sI2839681
I5273
sI2839694
I5274
sI3007341
I6880
sI2512016
I3286
sI1922206
I1770
sI2249897
I2566
sI3040114
I7178
sI1954992
I1850
sI2282683
I2709
sI1987778
I1926
sI2708719
I4204
sI2086136
I2143
sI2774265
I4739
sI3040127
I7179
sI2297386
I2749
sI2807038
I5019
sI2774278
I4740
sI2118922
I2227
sI2807051
I5020
sI2839824
I5275
sI2774291
I4741
sI2807064
I5021
sI2151708
I2307
sI2839837
I5276
sI2807077
I5022
sI2479399
I3233
sI2839850
I5277
sI2690610
I4112
sI3134767
I7443
sI2980062
I6553
sI2839863
I5278
sI2512185
I3287
sI2980063
I6554
sI382278
I14
sI2250066
I2567
sI1955161
I1851
sI2330172
I2869
sI1987947
I1927
sI775541
I179
sI2020733
I1999
sI2980076
I6559
sI2887235
I5580
sI3004611
I6783
sI2774447
I4742
sI2119091
I2228
sI2807220
I5023
sI2774460
I4743
sI2446782
I3167
sI2807233
I5024
sI2151877
I2308
sI2807246
I5025
sI1183310
I1305
sI3003864
I6678
sI3003865
I6679
sI3003866
I6680
sI3003867
I6681
sI3003868
I6682
sI3003869
I6683
sI3003870
I6684
sI2512354
I3288
sI3003877
I6685
sI3003878
I6686
sI3003879
I6687
sI3003880
I6688
sI3003881
I6689
sI3003882
I6690
sI3003883
I6691
sI3003891
I6692
sI3003892
I6693
sI3003893
I6694
sI3003894
I6695
sI3003895
I6696
sI3003896
I6697
sI2250235
I2568
sI415233
I28
sI3003906
I6699
sI3003907
I6700
sI3003908
I6701
sI3003909
I6702
sI2283021
I2710
sI3003919
I6703
sI3003920
I6704
sI3003921
I6705
sI3003922
I6706
sI1988116
I1928
sI3003933
I6707
sI3003934
I6708
sI3003935
I6709
sI2020902
I2000
sI3003947
I6710
sI3003948
I6711
sI808496
I193
sI3003961
I6712
sI2086474
I2144
sI2119260
I2229
sI2774629
I4744
sI2446951
I3168
sI2807402
I5026
sI2152046
I2309
sI2840175
I5279
sI1128723
I797
sI2807415
I5027
sI2479737
I3234
sI2840188
I5280
sI2872961
I5515
sI1889927
I1686
sI2840201
I5281
sI2512523
I3289
sI2872974
I5516
sI3004047
I6714
sI3004048
I6715
sI3004049
I6716
sI3004050
I6717
sI3004051
I6718
sI3004052
I6719
sI2872987
I5517
sI3004060
I6720
sI3004061
I6721
sI3004062
I6722
sI3004063
I6723
sI3004064
I6724
sI3004065
I6725
sI2250404
I2569
sI3004074
I6726
sI3004075
I6727
sI3004076
I6728
sI3004077
I6729
sI3004078
I6730
sI2283190
I2711
sI3004088
I6731
sI3004089
I6732
sI3004090
I6733
sI3004091
I6734
sI448188
I42
sI3004102
I6735
sI3004103
I6736
sI3004104
I6737
sI2021071
I2001
sI3004116
I6738
sI3004117
I6739
sI3004130
I6740
sI841451
I207
sI2086643
I2145
sI2447120
I3169
sI2152215
I2310
sI2807584
I5028
sI2742051
I4425
sI2840357
I5282
sI2185001
I2386
sI2742064
I4426
sI2840370
I5283
sI1333045
I1595
sI2742077
I4427
sI1333058
I1596
sI3004229
I6741
sI3004230
I6742
sI3004231
I6743
sI3004232
I6744
sI1627977
I1604
sI3004234
I6746
sI2250573
I2570
sI3004243
I6747
sI3004244
I6748
sI3004245
I6749
sI3004246
I6750
sI2742103
I4428
sI2283359
I2712
sI3004257
I6752
sI3004258
I6753
sI3004259
I6754
sI2742116
I4429
sI3004271
I6756
sI3004272
I6757
sI2742129
I4430
sI481143
I56
sI2608788
I3463
sI3004285
I6759
sI2742142
I4431
sI2054026
I2070
sI2742155
I4432
sI2742168
I4433
sI2086812
I2146
sI2742181
I4434
sI874406
I221
sI2414503
I3094
sI2119598
I2230
sI2302963
I2777
sI2447289
I3170
sI2152384
I2311
sI2611141
I3489
sI2480075
I3235
sI2611154
I3490
sI2742233
I4435
sI2840539
I5284
sI2512861
I3290
sI2611167
I3491
sI2873312
I5518
sI2742246
I4436
sI1333227
I1597
sI2611180
I3492
sI2873325
I5519
sI2250742
I2571
sI2611193
I3493
sI3004412
I6762
sI3004413
I6763
sI3004414
I6764
sI3004415
I6765
sI2742272
I4437
sI3037185
I7091
sI3037186
I7092
sI3037187
I7093
sI3037188
I7094
sI3037189
I7095
sI2611206
I3494
sI2283528
I2713
sI3004426
I6767
sI3004427
I6768
sI3004428
I6769
sI2742285
I4438
sI3037198
I7096
sI3037199
I7097
sI3037200
I7098
sI3037201
I7099
sI3037202
I7100
sI3004440
I6771
sI3004441
I6772
sI2742298
I4439
sI3037212
I7101
sI3037213
I7102
sI3037214
I7103
sI3037215
I7104
sI3004454
I6774
sI2742311
I4440
sI3037226
I7105
sI3037227
I7106
sI3037228
I7107
sI514098
I70
sI2742324
I4441
sI3037240
I7108
sI3037241
I7109
sI2742337
I4442
sI2086981
I2147
sI3037254
I7110
sI2742350
I4443
sI2414672
I3095
sI3034808
I7010
sI2119767
I2231
sI907361
I235
sI2447458
I3171
sI2480244
I3236
sI2185339
I2388
sI2980444
I6595
sI1890434
I1689
sI2513030
I3291
sI2611336
I3496
sI2742415
I4444
sI1923220
I1771
sI2611349
I3497
sI2873494
I5520
sI2250911
I2572
sI2611362
I3498
sI2742441
I4445
sI2611375
I3499
sI2283697
I2714
sI3004637
I6786
sI3004595
I6777
sI3004596
I6778
sI3004597
I6779
sI2742454
I4446
sI3037367
I7111
sI3037368
I7112
sI3037369
I7113
sI3037370
I7114
sI3037371
I7115
sI3004609
I6781
sI3004610
I6782
sI2742467
I4447
sI3037381
I7116
sI3037382
I7117
sI3037383
I7118
sI3037384
I7119
sI3004623
I6784
sI2742480
I4448
sI3037395
I7120
sI3037396
I7121
sI3037397
I7122
sI2742493
I4449
sI3037409
I7123
sI3037410
I7124
sI2742506
I4450
sI2941991
I5966
sI547053
I84
sI3037423
I7125
sI2742519
I4451
sI2414841
I3096
sI2119936
I2232
sI2447627
I3172
sI2152722
I2312
sI3009005
I6923
sI940316
I249
sI2480413
I3237
sI2185508
I2389
sI1890603
I1690
sI2611505
I3500
sI2218294
I2461
sI1923389
I1772
sI2611518
I3501
sI2251080
I2573
sI2775370
I4745
sI2611531
I3502
sI2906449
I5744
sI2742610
I4452
sI2775383
I4746
sI2611544
I3503
sI2283866
I2715
sI2756325
I4610
sI3004778
I6787
sI3004779
I6788
sI2742636
I4454
sI3037550
I7126
sI3037551
I7127
sI3037552
I7128
sI2775409
I4747
sI3004792
I6790
sI2742649
I4455
sI3037564
I7130
sI3037565
I7131
sI2775422
I4748
sI2980245
I6574
sI2742662
I4456
sI3037578
I7133
sI2775435
I4749
sI2742675
I4457
sI2775448
I4750
sI2742688
I4458
sI2415010
I3097
sI2775461
I4751
sI580008
I98
sI2775474
I4752
sI2447796
I3173
sI2152891
I2313
sI2480582
I3238
sI1183479
I1311
sI1890772
I1691
sI973271
I263
sI2218463
I2462
sI1923558
I1773
sI2611687
I3504
sI2985007
I6656
sI2644460
I3745
sI2251249
I2574
sI2611700
I3505
sI2644473
I3746
sI2775552
I4753
sI2611713
I3506
sI2284035
I2716
sI2644486
I3747
sI2644499
I3748
sI2775578
I4754
sI2659852
I3856
sI3004961
I6793
sI3004962
I6794
sI3037733
I7136
sI3037734
I7137
sI2775591
I4755
sI3070505
I7306
sI3070506
I7307
sI3070507
I7308
sI3070508
I7309
sI3004975
I6795
sI2980275
I6585
sI2775604
I4756
sI3070519
I7310
sI3070520
I7311
sI3070521
I7312
sI2087488
I2148
sI2775617
I4757
sI3070533
I7313
sI3070534
I7314
sI2415179
I3098
sI2775630
I4758
sI3070547
I7315
sI2775643
I4759
sI2447965
I3174
sI612963
I112
sI3006834
I6870
sI2480751
I3239
sI2185846
I2390
sI1890941
I1692
sI2218632
I2463
sI1923727
I1774
sI1006226
I277
sI2611869
I3507
sI1956513
I1852
sI2644642
I3749
sI2611882
I3508
sI2284204
I2717
sI2644655
I3750
sI2742961
I4459
sI2644668
I3751
sI2742974
I4460
sI2775747
I4760
sI2742987
I4461
sI2602028
I3347
sI2775760
I4761
sI2663544
I3868
sI2341326
I2926
sI2743000
I4462
sI3037916
I7142
sI2775773
I4762
sI3070688
I7316
sI3070689
I7317
sI3070690
I7318
sI2743013
I4463
sI2087657
I2149
sI2775786
I4763
sI3070702
I7319
sI3070703
I7320
sI2743026
I4464
sI2415348
I3099
sI2775799
I4764
sI3070716
I7321
sI2775812
I4765
sI2448134
I3175
sI2480920
I3240
sI645918
I126
sI1891110
I1693
sI1923896
I1775
sI2251587
I2575
sI1956682
I1853
sI1039181
I291
sI2330341
I2870
sI2284373
I2718
sI2644824
I3752
sI2644837
I3753
sI2743143
I4465
sI2182973
I2382
sI2808689
I5029
sI2743156
I4466
sI2743169
I4467
sI2808715
I5030
sI2743182
I4468
sI2087826
I2150
sI3038099
I7145
sI3070871
I7322
sI2808728
I5031
sI2743195
I4469
sI2808741
I5032
sI2448303
I3176
sI2808754
I5033
sI2808767
I5034
sI2481089
I3241
sI1891279
I1694
sI1924065
I1776
sI2978273
I6542
sI2251756
I2576
sI1956851
I1854
sI2284542
I2719
sI1072136
I305
sI2645006
I3754
sI2677779
I3981
sI2743325
I4470
sI2677792
I3982
sI2776098
I4766
sI3009031
I6926
sI2743338
I4471
sI2776111
I4767
sI2808884
I5035
sI2743351
I4472
sI2087995
I2151
sI2776124
I4768
sI2808897
I5036
sI2743364
I4473
sI2776137
I4769
sI2120781
I2233
sI2808910
I5037
sI3103826
I7405
sI3103827
I7406
sI2776150
I4770
sI2448472
I3177
sI2808923
I5038
sI3103840
I7407
sI2808936
I5039
sI2481258
I3242
sI1891448
I1695
sI1924234
I1777
sI711828
I153
sI1957020
I1855
sI1989806
I1929
sI2811081
I5050
sI1105091
I319
sI2677961
I3983
sI2743507
I4474
sI2776280
I4771
sI2743520
I4475
sI2942160
I5975
sI2088164
I2152
sI2776293
I4772
sI2743533
I4476
sI2415855
I3100
sI2776306
I4773
sI2120950
I2234
sI2690428
I4107
sI2972923
I6185
sI2972924
I6186
sI2972925
I6187
sI2972926
I6188
sI2776319
I4774
sI2972928
I6190
sI2972929
I6191
sI2972930
I6192
sI2972936
I6193
sI2972937
I6194
sI2972938
I6195
sI2972939
I6196
sI2972940
I6197
sI2332538
I2881
sI2972942
I6199
sI2972943
I6200
sI2481427
I3243
sI2972950
I6201
sI2972951
I6202
sI2972952
I6203
sI2972953
I6204
sI2972954
I6205
sI2972955
I6206
sI2972956
I6207
sI2972964
I6208
sI2972965
I6209
sI2972966
I6210
sI2972967
I6211
sI2972968
I6212
sI2972969
I6213
sI2972978
I6214
sI1924403
I1778
sI2972980
I6216
sI2972981
I6217
sI2972982
I6218
sI2252094
I2577
sI2972992
I6219
sI2972993
I6220
sI2972994
I6221
sI2972995
I6222
sI1957189
I1856
sI2973006
I6223
sI744783
I166
sI2973008
I6225
sI3073251
I7335
sI1989975
I1930
sI2973020
I6226
sI2973021
I6227
sI2973034
I6228
sI2743689
I4477
sI2088333
I2153
sI2776462
I4775
sI2809235
I5040
sI2743702
I4478
sI2416024
I3101
sI2776475
I4776
sI2121119
I2235
sI2809248
I5041
sI2842021
I5285
sI2776488
I4777
sI2448810
I3178
sI2809261
I5042
sI2973105
I6229
sI2842034
I5286
sI2973107
I6231
sI2973108
I6232
sI2973109
I6233
sI2973110
I6234
sI2973111
I6235
sI1859000
I1609
sI2809274
I5043
sI2481596
I3244
sI2842047
I5287
sI2973120
I6238
sI2973121
I6239
sI2973122
I6240
sI2973123
I6241
sI2973124
I6242
sI2973125
I6243
sI2842060
I5288
sI2973133
I6244
sI2973134
I6245
sI2973135
I6246
sI2973136
I6247
sI2973137
I6248
sI2973138
I6249
sI384475
I15
sI2973148
I6251
sI2973149
I6252
sI2973150
I6253
sI2973151
I6254
sI2252263
I2578
sI2973161
I6255
sI2973162
I6256
sI2973163
I6257
sI2973164
I6258
sI1957358
I1857
sI2973175
I6259
sI2973176
I6260
sI2973177
I6261
sI1990144
I1931
sI2973189
I6262
sI2973190
I6263
sI777738
I180
sI2973203
I6264
sI2718300
I4308
sI2396082
I3079
sI2743871
I4479
sI2416193
I3102
sI2776644
I4778
sI2121288
I2236
sI2809417
I5044
sI2776657
I4779
sI2809430
I5045
sI1302104
I1581
sI1302105
I1582
sI2154074
I2314
sI2204943
I2427
sI1859169
I1610
sI2809443
I5046
sI1302117
I1583
sI1302118
I1584
sI2973288
I6265
sI2973289
I6266
sI2973290
I6267
sI2973291
I6268
sI2973292
I6269
sI2973293
I6270
sI2973294
I6271
sI1302131
I1585
sI2973302
I6272
sI2973303
I6273
sI2973304
I6274
sI2973305
I6275
sI2973306
I6276
sI2973307
I6277
sI2973316
I6278
sI2973317
I6279
sI2973318
I6280
sI2973319
I6281
sI2973320
I6282
sI2252432
I2579
sI2973330
I6283
sI2973331
I6284
sI2973332
I6285
sI2973333
I6286
sI417430
I29
sI2973344
I6287
sI2973345
I6288
sI2973346
I6289
sI1990313
I1932
sI2973358
I6290
sI2973359
I6291
sI2887625
I5599
sI2023099
I2002
sI2973372
I6292
sI810693
I194
sI2663713
I3875
sI2088671
I2154
sI2416362
I3103
sI2121457
I2237
sI2776826
I4780
sI2449148
I3179
sI2809599
I5047
sI2154243
I2315
sI2842372
I5289
sI1859338
I1611
sI2809612
I5048
sI2481934
I3245
sI1302287
I1587
sI2842385
I5290
sI1302300
I1588
sI2842398
I5291
sI2973471
I6293
sI2973472
I6294
sI2973473
I6295
sI57122
I2
sI2973475
I6297
sI2973476
I6298
sI3006245
I6799
sI3006246
I6800
sI3006247
I6801
sI3006248
I6802
sI3006249
I6803
sI2973485
I6299
sI2973486
I6300
sI2973487
I6301
sI2973488
I6302
sI2973489
I6303
sI3006258
I6805
sI3006259
I6806
sI3006260
I6807
sI1121402
I636
sI3006262
I6809
sI2252601
I2580
sI2973499
I6304
sI2973500
I6305
sI2973501
I6306
sI2973502
I6307
sI3006271
I6810
sI3006272
I6811
sI3006273
I6812
sI3006274
I6813
sI3006275
I6814
sI2973513
I6308
sI2973514
I6309
sI2973515
I6310
sI3006285
I6815
sI3006286
I6816
sI3006287
I6817
sI3006288
I6818
sI450385
I43
sI2973527
I6311
sI2973528
I6312
sI3006299
I6819
sI3006300
I6820
sI3006301
I6821
sI2023268
I2003
sI2609126
I3474
sI3006313
I6822
sI3006314
I6823
sI3006327
I6824
sI843648
I208
sI2383745
I3017
sI2088840
I2155
sI2416531
I3104
sI2303301
I2779
sI2449317
I3180
sI2154412
I2316
sI1859507
I1612
sI2809781
I5049
sI2482103
I3246
sI2842554
I5292
sI1892293
I1696
sI2842567
I5293
sI2973654
I6314
sI2973655
I6315
sI2973656
I6316
sI2973657
I6317
sI2973658
I6318
sI3006427
I6826
sI3006428
I6827
sI3006429
I6828
sI3006430
I6829
sI3006431
I6830
sI2252770
I2581
sI2973668
I6319
sI2973669
I6320
sI2973670
I6321
sI2973671
I6322
sI3006440
I6831
sI3006441
I6832
sI3006442
I6833
sI3006443
I6834
sI3006444
I6835
sI2973682
I6323
sI2973683
I6324
sI2973684
I6325
sI3006454
I6836
sI3006455
I6837
sI3006456
I6838
sI3006457
I6839
sI1921023
I1763
sI2973696
I6326
sI2973697
I6327
sI3006468
I6840
sI3006469
I6841
sI3006470
I6842
sI483340
I57
sI2973710
I6328
sI3006482
I6843
sI3006483
I6844
sI3006496
I6845
sI2383914
I3018
sI2089009
I2156
sI876603
I222
sI2416700
I3105
sI2121795
I2238
sI2449486
I3181
sI2154581
I2317
sI1859676
I1613
sI2187367
I2391
sI1892462
I1697
sI2842736
I5294
sI2875509
I5521
sI2744443
I4481
sI1335424
I1598
sI2875522
I5522
sI2252939
I2582
sI2973837
I6329
sI2973838
I6330
sI2973839
I6331
sI2973840
I6332
sI3006609
I6846
sI3006610
I6847
sI3006611
I6848
sI3006612
I6849
sI2744469
I4482
sI2973851
I6333
sI2973852
I6334
sI2973853
I6335
sI3006623
I6851
sI3006624
I6852
sI3006625
I6853
sI2744482
I4483
sI2973865
I6336
sI2973866
I6337
sI3128007
I7427
sI3006637
I6855
sI3006638
I6856
sI2744495
I4484
sI2973879
I6338
sI3006651
I6858
sI2744508
I4485
sI516295
I71
sI2744521
I4486
sI2384083
I3019
sI2744534
I4487
sI2089178
I2157
sI2744547
I4488
sI2416869
I3106
sI2121964
I2239
sI909558
I236
sI2449655
I3182
sI1859845
I1614
sI2482441
I3247
sI2187536
I2392
sI1892631
I1698
sI2613533
I3511
sI2744612
I4489
sI2613546
I3512
sI2875691
I5523
sI3035187
I7063
sI2253108
I2583
sI2613559
I3513
sI2744638
I4490
sI2613572
I3514
sI2974021
I6340
sI2974022
I6341
sI3006792
I6861
sI3006793
I6862
sI3006794
I6863
sI2744651
I4491
sI3039564
I7146
sI3039565
I7147
sI3039566
I7148
sI3039567
I7149
sI3039568
I7150
sI2974034
I6342
sI2974035
I6343
sI3006806
I6865
sI3006807
I6866
sI2744664
I4492
sI3039578
I7151
sI3039579
I7152
sI3039580
I7153
sI3039581
I7154
sI2974048
I6344
sI3006820
I6868
sI2744677
I4493
sI3039592
I7155
sI3039593
I7156
sI3039594
I7157
sI2056561
I2071
sI2744690
I4494
sI3039606
I7158
sI3039607
I7159
sI2384252
I3020
sI2744703
I4495
sI3035200
I7066
sI549250
I85
sI3039620
I7160
sI2744716
I4496
sI2417038
I3107
sI2122133
I2240
sI2449824
I3183
sI2154919
I2318
sI1860014
I1615
sI942513
I250
sI2482610
I3248
sI1178355
I1152
sI2187705
I2393
sI1892800
I1699
sI2613702
I3515
sI3035213
I7068
sI1925586
I1779
sI2613715
I3516
sI2253277
I2584
sI2613728
I3517
sI2744807
I4497
sI2613741
I3518
sI2744820
I4498
sI2974203
I6345
sI2974204
I6346
sI3006975
I6871
sI3006976
I6872
sI2744833
I4499
sI3039747
I7161
sI3039748
I7162
sI3039749
I7163
sI3039750
I7164
sI2947841
I6099
sI2974217
I6347
sI3006989
I6874
sI2744846
I4500
sI3039761
I7165
sI3039762
I7166
sI2980611
I6599
sI2056730
I2072
sI2744859
I4501
sI3035226
I7069
sI2980613
I6601
sI3039776
I7169
sI1216603
I1469
sI2384421
I3021
sI2744872
I4502
sI3039789
I7170
sI2744885
I4503
sI2417207
I3108
sI582205
I99
sI2449993
I3184
sI1178381
I1161
sI2155088
I2319
sI1860183
I1616
sI2482779
I3249
sI1892969
I1700
sI975468
I264
sI2220660
I2464
sI1925755
I1780
sI2613884
I3519
sI2253446
I2585
sI2613897
I3520
sI2777749
I4781
sI2613910
I3521
sI2777775
I4782
sI2974386
I6348
sI3007158
I6877
sI3007159
I6878
sI3039930
I7171
sI3039931
I7172
sI2777788
I4783
sI2663882
I3881
sI2056899
I2073
sI3007172
I6879
sI3039944
I7174
sI2777801
I4784
sI2777814
I4785
sI2417376
I3109
sI2777827
I4786
sI2777840
I4787
sI2450162
I3185
sI2893267
I5688
sI615160
I113
sI1860352
I1617
sI2482948
I3250
sI2188043
I2394
sI1893138
I1701
sI2220829
I2465
sI1925924
I1781
sI1008423
I278
sI2253615
I2586
sI2614066
I3522
sI2646839
I3755
sI2614079
I3523
sI2646852
I3756
sI2745158
I4504
sI2725398
I4370
sI2646865
I3757
sI2745171
I4505
sI2777944
I4788
sI2745184
I4506
sI2777957
I4789
sI2057068
I2074
sI2745197
I4507
sI3040113
I7177
sI2777970
I4790
sI3072885
I7326
sI3072886
I7327
sI3072887
I7328
sI2745210
I4508
sI2089854
I2158
sI2777983
I4791
sI3072899
I7329
sI3072900
I7330
sI2745223
I4509
sI2417545
I3110
sI2777996
I4792
sI3072913
I7331
sI1123822
I723
sI2778009
I4793
sI2450331
I3186
sI1860521
I1618
sI2483117
I3251
sI1893307
I1702
sI2642081
I3730
sI1926093
I1782
sI1958879
I1858
sI1041378
I292
sI2614248
I3524
sI1123836
I725
sI2647021
I3758
sI2647034
I3759
sI2745340
I4510
sI2178748
I2370
sI2745353
I4511
sI2057237
I2075
sI2745366
I4512
sI2941978
I5965
sI2384928
I3022
sI2745379
I4513
sI2090023
I2159
sI3040296
I7180
sI3073068
I7332
sI3073069
I7333
sI2745392
I4514
sI2942004
I5967
sI3073082
I7334
sI1827904
I1608
sI2942017
I5968
sI2450500
I3187
sI2942030
I5969
sI1860690
I1619
sI2483286
I3252
sI2942043
I5970
sI1893476
I1703
sI2942056
I5971
sI681070
I140
sI2942069
I5972
sI1926262
I1783
sI2253953
I2587
sI2942082
I5973
sI1959048
I1859
sI2942095
I5974
sI1074333
I306
sI3128176
I7428
sI2647203
I3760
sI2745522
I4515
sI2778295
I4794
sI2057406
I2076
sI2745535
I4516
sI2778308
I4795
sI2385097
I3023
sI2745548
I4517
sI2090192
I2160
sI2778321
I4796
sI2811094
I5051
sI2745561
I4518
sI2417883
I3111
sI2942173
I5976
sI2778334
I4797
sI2811107
I5052
sI2942186
I5977
sI2778347
I4798
sI2450669
I3188
sI2811120
I5053
sI2942199
I5978
sI2811133
I5054
sI2483455
I3253
sI2942212
I5979
sI1893645
I1704
sI2942225
I5980
sI2942238
I5981
sI1926431
I1784
sI714025
I154
sI2942251
I5982
sI1959217
I1860
sI2942264
I5983
sI1107288
I320
sI2680158
I3984
sI2745704
I4519
sI2778477
I4799
sI2385266
I3024
sI2745717
I4520
sI3035369
I7076
sI2090361
I2161
sI2778490
I4800
sI1271163
I1547
sI1271164
I1548
sI1271165
I1549
sI2745730
I4521
sI2942342
I5984
sI2778503
I4801
sI1271176
I1550
sI1271177
I1551
sI1271178
I1552
sI2123147
I2241
sI2942355
I5985
sI2778516
I4802
sI1271190
I1553
sI1271191
I1554
sI3106206
I7409
sI2942368
I5986
sI1271204
I1555
sI2483624
I3254
sI1178524
I1173
sI2942381
I5987
sI2975305
I6352
sI2942394
I5988
sI3035382
I7078
sI2942407
I5989
sI1926600
I1785
sI2973106
I6230
sI2254291
I2588
sI2942420
I5990
sI1178368
I1157
sI1959386
I1861
sI2942433
I5991
sI746980
I167
sI1992172
I1933
sI1178537
I1178
sI2948010
I6100
sI2975318
I6359
sI2057744
I2077
sI3035395
I7079
sI2292654
I2725
sI2385435
I3025
sI2745886
I4522
sI2090530
I2162
sI2778659
I4803
sI2811432
I5055
sI2745899
I4523
sI2418221
I3112
sI2778672
I4804
sI1271345
I1556
sI1271346
I1557
sI1271347
I1558
sI2123316
I2242
sI2811445
I5056
sI2942524
I5992
sI2778685
I4805
sI1271359
I1559
sI1271360
I1560
sI2811458
I5057
sI2685878
I4022
sI2975302
I6349
sI2975303
I6350
sI2975304
I6351
sI2942537
I5993
sI2975306
I6353
sI2975307
I6354
sI2975308
I6355
sI1271373
I1561
sI2811471
I5058
sI2483793
I3255
sI2975331
I6365
sI2975316
I6357
sI2975317
I6358
sI2942550
I5994
sI2975319
I6360
sI2975320
I6361
sI2975321
I6362
sI2975322
I6363
sI2975330
I6364
sI2942563
I5995
sI2975332
I6366
sI2975333
I6367
sI2975334
I6368
sI2975335
I6369
sI386672
I16
sI2975345
I6371
sI2975346
I6372
sI2975347
I6373
sI2975348
I6374
sI2254460
I2589
sI2942589
I5997
sI2975358
I6375
sI2975359
I6376
sI2975360
I6377
sI2975361
I6378
sI1959555
I1862
sI2942602
I5998
sI2975372
I6379
sI2975373
I6380
sI2975374
I6381
sI1992341
I1934
sI2975386
I6382
sI2975387
I6383
sI779935
I181
sI2942576
I5996
sI2975400
I6384
sI2980808
I6607
sI2664051
I3886
sI2057913
I2078
sI2385604
I3026
sI2746068
I4524
sI2418390
I3113
sI2778841
I4806
sI2123485
I2243
sI2811614
I5059
sI2778854
I4807
sI1271528
I1562
sI1271529
I1563
sI2811627
I5060
sI1178578
I1189
sI2942706
I5999
sI1271542
I1564
sI2811640
I5061
sI2975485
I6385
sI2975486
I6386
sI2942719
I6000
sI2975488
I6388
sI2975489
I6389
sI2975490
I6390
sI2975491
I6391
sI2975499
I6392
sI2942732
I6001
sI2975501
I6394
sI2975502
I6395
sI2975503
I6396
sI2975504
I6397
sI2942745
I6002
sI2975514
I6399
sI2975515
I6400
sI2975516
I6401
sI2975517
I6402
sI2696837
I4150
sI2254629
I2590
sI2942758
I6003
sI2975527
I6403
sI2975528
I6404
sI2975529
I6405
sI2975530
I6406
sI419627
I30
sI2942771
I6004
sI2975541
I6407
sI2975542
I6408
sI2975543
I6409
sI1992510
I1935
sI2975555
I6410
sI2975556
I6411
sI2827916
I5095
sI2975569
I6412
sI812890
I195
sI2352987
I2929
sI2058082
I2079
sI2385773
I3027
sI2090868
I2163
sI2418559
I3114
sI2123654
I2244
sI2303639
I2781
sI2779023
I4808
sI2713490
I4205
sI2811796
I5062
sI2827929
I5096
sI2156440
I2320
sI2844569
I5295
sI1271711
I1565
sI2811809
I5063
sI1304483
I1590
sI1304484
I1591
sI2844582
I5296
sI2942888
I6005
sI1304497
I1592
sI2844595
I5297
sI2975668
I6413
sI2942901
I6006
sI2975670
I6415
sI2975671
I6416
sI1599416
I1603
sI2713529
I4207
sI2942914
I6007
sI2975683
I6420
sI2975684
I6421
sI2975685
I6422
sI2713542
I4208
sI2254798
I2591
sI2942927
I6008
sI2975696
I6424
sI2975697
I6425
sI2975698
I6426
sI2713555
I4209
sI2942940
I6009
sI2975710
I6428
sI2975711
I6429
sI2713568
I4210
sI452582
I44
sI2975724
I6431
sI2713581
I4211
sI1121415
I641
sI2025465
I2004
sI2713594
I4212
sI2353156
I2930
sI2713607
I4213
sI2058251
I2080
sI2713620
I4214
sI845845
I209
sI2385942
I3028
sI2091037
I2164
sI2418728
I3115
sI2451514
I3191
sI2975309
I6356
sI2156609
I2321
sI1861704
I1622
sI2811978
I5064
sI2484300
I3257
sI2844751
I5298
sI2696889
I4154
sI2976401
I6466
sI1304666
I1593
sI2161679
I2331
sI2844764
I5299
sI2943070
I6010
sI2713698
I4216
sI2943083
I6011
sI2975852
I6435
sI2975853
I6436
sI2975854
I6437
sI2713711
I4217
sI3008624
I6882
sI3008625
I6883
sI3008626
I6884
sI3008627
I6885
sI3008628
I6886
sI2254967
I2592
sI2943096
I6012
sI2975865
I6439
sI2975866
I6440
sI2975867
I6441
sI2713724
I4218
sI3008637
I6887
sI3008638
I6888
sI3008639
I6889
sI3008640
I6890
sI3008641
I6891
sI2943109
I6013
sI2975879
I6443
sI2975880
I6444
sI2713737
I4219
sI3008651
I6892
sI3008652
I6893
sI3008653
I6894
sI3008654
I6895
sI2178072
I2366
sI2975893
I6446
sI2713750
I4220
sI3008665
I6896
sI3008666
I6897
sI3008667
I6898
sI485537
I58
sI2713763
I4221
sI3008679
I6899
sI3008680
I6900
sI2353325
I2931
sI2713776
I4222
sI2058420
I2081
sI3008693
I6901
sI2713789
I4223
sI2386111
I3029
sI2091206
I2165
sI878800
I223
sI2418897
I3116
sI2123992
I2245
sI2451683
I3192
sI2156778
I2322
sI1861873
I1623
sI3008623
I6881
sI2484469
I3258
sI1894659
I1705
sI2844933
I5300
sI2713867
I4224
sI2943252
I6014
sI2713880
I4225
sI2255136
I2593
sI2943265
I6015
sI2976034
I6449
sI2976035
I6450
sI2976036
I6451
sI2713893
I4226
sI3008806
I6902
sI3008807
I6903
sI3008808
I6904
sI3008809
I6905
sI3008810
I6906
sI2943278
I6016
sI2976048
I6453
sI2976049
I6454
sI2713906
I4227
sI3008820
I6907
sI3008821
I6908
sI3008822
I6909
sI3008823
I6910
sI2976062
I6456
sI2713919
I4228
sI3008834
I6911
sI3008835
I6912
sI3008836
I6913
sI2713932
I4229
sI3008848
I6914
sI3008849
I6915
sI2353494
I2932
sI2713945
I4230
sI518492
I72
sI3008862
I6916
sI2713958
I4231
sI2386280
I3030
sI2828007
I5101
sI3035538
I7082
sI2091375
I2166
sI2451176
I3190
sI2419066
I3117
sI2124161
I2246
sI911755
I237
sI2451852
I3193
sI1862042
I1624
sI2189733
I2395
sI1894828
I1706
sI2746809
I4525
sI3035551
I7084
sI1861366
I1620
sI2255305
I2594
sI2943434
I6017
sI2746835
I4526
sI2943447
I6018
sI2976217
I6459
sI2976218
I6460
sI2976219
I6461
sI3008989
I6917
sI3008990
I6918
sI3008991
I6919
sI2746848
I4527
sI2976231
I6462
sI2976232
I6463
sI3009003
I6921
sI3009004
I6922
sI2746861
I4528
sI2976245
I6464
sI3009017
I6924
sI2746874
I4529
sI2975487
I6387
sI2746887
I4530
sI3035564
I7085
sI2718807
I4321
sI2386449
I3031
sI2746900
I4531
sI551447
I86
sI2746913
I4532
sI2419235
I3118
sI2124330
I2247
sI2452021
I3194
sI1178719
I1197
sI2157116
I2323
sI1862211
I1625
sI944710
I251
sI2975500
I6393
sI2189902
I2396
sI1894997
I1707
sI2615899
I3525
sI2615912
I3526
sI2714218
I4232
sI2255474
I2595
sI2615925
I3527
sI2714231
I4233
sI2747004
I4533
sI2943616
I6019
sI2615938
I3528
sI2714244
I4234
sI2747017
I4534
sI2976400
I6465
sI2714257
I4235
sI3009172
I6927
sI3009173
I6928
sI2747030
I4535
sI2975513
I6398
sI3041944
I7181
sI3041945
I7182
sI3041946
I7183
sI3041947
I7184
sI2714270
I4236
sI3009186
I6930
sI2747043
I4536
sI3041958
I7185
sI2980977
I6608
sI3041960
I7187
sI2714283
I4237
sI2058927
I2082
sI2747056
I4537
sI3041972
I7188
sI3041973
I7189
sI2714296
I4238
sI2386618
I3032
sI2747069
I4538
sI3041986
I7190
sI2747082
I4539
sI2419404
I3119
sI584402
I100
sI2452190
I3195
sI1178747
I1204
sI2157285
I2324
sI1862380
I1626
sI1895166
I1708
sI977665
I265
sI1927952
I1786
sI2616081
I3529
sI2697006
I4155
sI2255643
I2596
sI2616094
I3530
sI2714400
I4239
sI2616107
I3531
sI2714413
I4240
sI2714426
I4241
sI2664246
I3892
sI2714439
I4242
sI3009355
I6933
sI3009356
I6934
sI3042127
I7191
sI3042128
I7192
sI2354001
I2933
sI2714452
I4243
sI2059096
I2083
sI3009369
I6935
sI3042141
I7194
sI3042142
I7195
sI2714465
I4244
sI3042155
I7196
sI2419573
I3120
sI2452359
I3196
sI1862549
I1627
sI2190240
I2397
sI1895335
I1709
sI2223026
I2466
sI1928121
I1787
sI1010620
I279
sI2255812
I2597
sI2616263
I3532
sI2980795
I6606
sI2616276
I3533
sI2714582
I4245
sI2747355
I4540
sI2714595
I4246
sI2747368
I4541
sI2780141
I4809
sI2714608
I4247
sI2747381
I4542
sI2780154
I4810
sI2714621
I4248
sI2059265
I2084
sI2747394
I4543
sI3042310
I7197
sI2780167
I4811
sI2714634
I4249
sI2386956
I3033
sI2747407
I4544
sI2780180
I4812
sI2747420
I4545
sI2419742
I3121
sI2780193
I4813
sI2780206
I4814
sI2452528
I3197
sI1862718
I1628
sI650312
I127
sI1895504
I1710
sI3035356
I7073
sI2975344
I6370
sI1928290
I1788
sI2255981
I2598
sI1043575
I293
sI2616445
I3534
sI2649218
I3761
sI2178241
I2367
sI2714764
I4250
sI2649231
I3762
sI2747537
I4546
sI2714777
I4251
sI2747550
I4547
sI1240223
I1479
sI1240224
I1480
sI1240225
I1481
sI2354339
I2935
sI2714790
I4252
sI2059434
I2085
sI1240235
I1482
sI1240236
I1483
sI1240237
I1484
sI1240238
I1485
sI2714803
I4253
sI2747576
I4549
sI1240249
I1486
sI1240250
I1487
sI1240251
I1488
sI2092220
I2167
sI3042493
I7200
sI3075265
I7336
sI3075266
I7337
sI2747589
I4550
sI1240263
I1489
sI1240264
I1490
sI3075279
I7338
sI1240277
I1491
sI2452697
I3198
sI1862887
I1629
sI1895673
I1711
sI683267
I141
sI1928459
I1789
sI1961245
I1863
sI1076530
I307
sI2649400
I3763
sI2714946
I4254
sI2747719
I4551
sI2780492
I4815
sI2714959
I4255
sI2059603
I2086
sI1240404
I1492
sI1240405
I1493
sI1240406
I1494
sI1240407
I1495
sI2780505
I4816
sI2714972
I4256
sI2387294
I3034
sI2747745
I4553
sI1240418
I1496
sI1240419
I1497
sI1240420
I1498
sI2092389
I2168
sI2780518
I4817
sI2747758
I4554
sI1240432
I1499
sI1240433
I1500
sI2944370
I6021
sI2780531
I4818
sI3075448
I7339
sI1240446
I1501
sI2944383
I6022
sI2780544
I4819
sI2452866
I3199
sI2944396
I6023
sI2944409
I6024
sI1895842
I1712
sI2944422
I6025
sI3035720
I7087
sI2944435
I6026
sI1928628
I1790
sI1861535
I1621
sI716222
I155
sI2944448
I6027
sI1961414
I1864
sI2944461
I6028
sI3068493
I7298
sI2484131
I3256
sI1109485
I321
sI2354677
I2937
sI2715128
I4257
sI2747901
I4555
sI3035733
I7088
sI2292992
I2727
sI2780674
I4820
sI2715141
I4258
sI2387463
I3035
sI2747914
I4556
sI1240587
I1502
sI1240588
I1503
sI1240589
I1504
sI2092558
I2169
sI2780687
I4821
sI2747927
I4557
sI1240601
I1505
sI1240602
I1506
sI2944539
I6029
sI2780700
I4822
sI3068506
I7300
sI1240615
I1507
sI2944552
I6030
sI2780713
I4823
sI1178888
I1207
sI2944565
I6031
sI2975669
I6414
sI2944578
I6032
sI1211661
I1409
sI2975672
I6417
sI2975673
I6418
sI2944604
I6034
sI1928797
I1791
sI2944617
I6035
sI3068519
I7301
sI2325778
I2847
sI1961583
I1865
sI2944630
I6036
sI749177
I168
sI2975682
I6419
sI1211674
I1413
sI2354846
I2938
sI2059941
I2087
sI3011371
I6964
sI2715310
I4259
sI2387632
I3036
sI2748083
I4558
sI2092727
I2170
sI2780856
I4824
sI2813629
I5065
sI2748096
I4559
sI1240770
I1508
sI1240771
I1509
sI2780869
I4825
sI1273542
I1566
sI1273543
I1567
sI1273544
I1568
sI2125513
I2248
sI2813642
I5066
sI1240784
I1510
sI2790008
I4860
sI2780882
I4826
sI2453204
I3200
sI1273557
I1570
sI2813655
I5067
sI2944734
I6038
sI1273570
I1571
sI2813668
I5068
sI2944747
I6039
sI2975699
I6427
sI2944760
I6040
sI388869
I17
sI3013932
I6991
sI2944786
I6042
sI1961752
I1866
sI2944799
I6043
sI1994538
I1936
sI2888327
I5619
sI782132
I182
sI2322229
I2830
sI2975712
I6430
sI1211702
I1420
sI2355015
I2939
sI2060110
I2088
sI2387801
I3037
sI2953873
I6150
sI2748265
I4560
sI2420587
I3124
sI2781038
I4827
sI2125682
I2249
sI2813811
I5069
sI2303977
I2782
sI1240953
I1511
sI2781051
I4828
sI1273725
I1572
sI1273726
I1573
sI2813824
I5070
sI2944903
I6044
sI1273739
I1574
sI2813837
I5071
sI2975725
I6432
sI28561
I1
sI2977682
I6469
sI2977683
I6470
sI2944916
I6045
sI2977685
I6472
sI2977686
I6473
sI2977687
I6474
sI2977688
I6475
sI2977696
I6476
sI2944929
I6046
sI2977698
I6478
sI2977699
I6479
sI2977700
I6480
sI2977701
I6481
sI2697201
I4161
sI2944942
I6047
sI2977711
I6483
sI2977712
I6484
sI2977713
I6485
sI2977714
I6486
sI2944955
I6048
sI2977724
I6487
sI2977725
I6488
sI2977726
I6489
sI2977727
I6490
sI421824
I31
sI2888353
I5620
sI2944968
I6049
sI2977738
I6491
sI2977739
I6492
sI2977740
I6493
sI1994707
I1937
sI2977752
I6494
sI2977753
I6495
sI2975738
I6433
sI2322398
I2831
sI2232997
I2481
sI2336763
I2903
sI2713503
I4206
sI2977766
I6496
sI815087
I196
sI2355184
I2940
sI2060279
I2089
sI2387970
I3038
sI2093065
I2171
sI2420756
I3125
sI2888366
I5621
sI2125851
I2250
sI2781220
I4829
sI2453542
I3202
sI2813993
I5072
sI1863732
I1630
sI2814006
I5073
sI2945085
I6050
sI2977865
I6497
sI2945098
I6051
sI2977867
I6499
sI2977868
I6500
sI2977869
I6501
sI2977870
I6502
sI2945111
I6052
sI2977880
I6504
sI2977881
I6505
sI2977882
I6506
sI2977883
I6507
sI2945124
I6053
sI2977893
I6508
sI2977894
I6509
sI2977895
I6510
sI2977896
I6511
sI2945137
I6054
sI2977907
I6512
sI2977908
I6513
sI2977909
I6514
sI454779
I45
sI2178410
I2368
sI2977921
I6515
sI2977922
I6516
sI2322567
I2832
sI2977935
I6517
sI2355353
I2941
sI2060448
I2090
sI848042
I210
sI2388139
I3039
sI2093234
I2172
sI1118921
I519
sI2420925
I3126
sI2158806
I2325
sI1863901
I1631
sI2814175
I5074
sI1306863
I1594
sI2945267
I6055
sI2715895
I4261
sI2945280
I6056
sI2978049
I6519
sI2978050
I6520
sI2978051
I6521
sI2715908
I4262
sI2945293
I6057
sI2978062
I6523
sI2978063
I6524
sI2978064
I6525
sI2715921
I4263
sI2945306
I6058
sI2978076
I6527
sI2978077
I6528
sI2715934
I4264
sI2978090
I6530
sI2715947
I4265
sI487734
I59
sI2715960
I4266
sI2355522
I2942
sI2715973
I4267
sI2060617
I2091
sI2715986
I4268
sI2388308
I3040
sI2093403
I2173
sI880997
I224
sI2421094
I3127
sI2126189
I2251
sI2453880
I3203
sI2158975
I2326
sI1864070
I1632
sI2716064
I4269
sI2945449
I6059
sI2716077
I4270
sI2713672
I4215
sI2945462
I6060
sI2978231
I6533
sI2978232
I6534
sI2978233
I6535
sI2716090
I4271
sI3011003
I6937
sI3011004
I6938
sI3011005
I6939
sI3011006
I6940
sI3011007
I6941
sI2945475
I6061
sI2978245
I6537
sI1983553
I1916
sI2716103
I4272
sI3011017
I6942
sI3011018
I6943
sI3011019
I6944
sI3011020
I6945
sI2978259
I6540
sI2716116
I4273
sI3011031
I6946
sI3011032
I6947
sI3011033
I6948
sI2028000
I2005
sI2716129
I4274
sI3011045
I6949
sI3011046
I6950
sI2355691
I2943
sI2716142
I4275
sI520689
I73
sI3011059
I6951
sI2716155
I4276
sI2388477
I3041
sI2093572
I2174
sI2421263
I3128
sI3068675
I7303
sI2126358
I2252
sI913952
I238
sI2454049
I3204
sI1864239
I1633
sI1897025
I1713
sI2880085
I5524
sI2945631
I6062
sI3068688
I7304
sI2325947
I2848
sI2945644
I6063
sI2978414
I6543
sI2978415
I6544
sI2978416
I6545
sI3011186
I6952
sI3011187
I6953
sI3011188
I6954
sI3011189
I6955
sI2978428
I6546
sI2978429
I6547
sI3011200
I6956
sI3011201
I6957
sI2323074
I2833
sI2975851
I6434
sI2028169
I2006
sI2978442
I6548
sI3011214
I6959
sI3011215
I6960
sI1211843
I1423
sI2975855
I6438
sI3011228
I6961
sI2388646
I3042
sI553644
I87
sI2421432
I3129
sI2126527
I2253
sI2454218
I3205
sI1179085
I1220
sI2159313
I2327
sI1864408
I1634
sI946907
I252
sI2192099
I2398
sI2975868
I6442
sI1897194
I1714
sI2915796
I5800
sI2716415
I4277
sI2716428
I4278
sI2749201
I4561
sI2945813
I6064
sI2716441
I4279
sI2749214
I4562
sI2978597
I6549
sI2716454
I4280
sI3011369
I6962
sI3011370
I6963
sI2749227
I4563
sI2028338
I2007
sI2716467
I4281
sI2975881
I6445
sI2749240
I4564
sI1211871
I1430
sI2356029
I2944
sI2716480
I4282
sI2749253
I4565
sI2716493
I4283
sI2388815
I3043
sI2749266
I4566
sI2749279
I4567
sI2421601
I3130
sI2200380
I2407
sI2454387
I3206
sI2159482
I2328
sI1864577
I1635
sI2975894
I6447
sI1897363
I1715
sI979862
I266
sI2618278
I3535
sI2618291
I3536
sI2716597
I4284
sI2888522
I5622
sI2618304
I3537
sI1209281
I1353
sI1209282
I1354
sI1209283
I1355
sI1209284
I1356
sI1209285
I1357
sI1209294
I1358
sI1209295
I1359
sI1209296
I1360
sI1209297
I1361
sI1209298
I1362
sI2975907
I6448
sI2323412
I2835
sI2233166
I2482
sI2336932
I2904
sI2028507
I2008
sI1209308
I1363
sI1209309
I1364
sI1209310
I1365
sI1209311
I1366
sI3011552
I6968
sI3011553
I6969
sI3044324
I7201
sI3044325
I7202
sI3044326
I7203
sI2716649
I4288
sI1209322
I1367
sI1209323
I1368
sI1209324
I1369
sI2061293
I2092
sI3011566
I6970
sI3044338
I7204
sI3044339
I7205
sI2716662
I4289
sI1209336
I1370
sI1209337
I1371
sI3044352
I7206
sI1209350
I1372
sI2421770
I3131
sI2888535
I5623
sI2454556
I3207
sI619554
I114
sI1864746
I1636
sI2192437
I2399
sI1897532
I1716
sI1930318
I1792
sI1012817
I280
sI2618460
I3538
sI2618473
I3539
sI2716779
I4290
sI2749552
I4568
sI2178579
I2369
sI1209463
I1373
sI2716792
I4291
sI1209465
I1375
sI1209466
I1376
sI1209467
I1377
sI2323581
I2836
sI2028676
I2009
sI2716805
I4292
sI1209478
I1379
sI1209479
I1380
sI1209480
I1381
sI2913417
I5745
sI2749578
I4570
sI2356367
I2945
sI2716818
I4293
sI1209491
I1382
sI1209492
I1383
sI1209493
I1384
sI2061462
I2093
sI2749591
I4571
sI3044507
I7207
sI3044508
I7208
sI2716831
I4294
sI2389153
I3044
sI1209506
I1386
sI2913443
I5747
sI2749604
I4572
sI3044521
I7209
sI2298738
I2756
sI1209519
I1387
sI2913456
I5748
sI2749617
I4573
sI2421939
I3132
sI2913469
I5749
sI2454725
I3208
sI2913482
I5750
sI1864915
I1637
sI2913495
I5751
sI652509
I128
sI2211365
I2447
sI2913508
I5752
sI1897701
I1717
sI2913521
I5753
sI1930487
I1793
sI2913547
I5754
sI1045772
I294
sI2618642
I3540
sI2716961
I4295
sI2323750
I2837
sI1209646
I1388
sI1209647
I1389
sI1209648
I1390
sI1209649
I1391
sI2749747
I4575
sI2356536
I2946
sI2716987
I4297
sI1209660
I1392
sI1209661
I1393
sI1209662
I1394
sI2061631
I2094
sI2749760
I4576
sI2717000
I4298
sI2389322
I3045
sI1209675
I1396
sI2913612
I5756
sI2749773
I4577
sI3044690
I7210
sI1209688
I1397
sI2913625
I5757
sI2749786
I4578
sI3068167
I7283
sI2913638
I5758
sI2454894
I3209
sI2913651
I5759
sI1865084
I1638
sI3068168
I7284
sI2913664
I5760
sI2913677
I5761
sI1897870
I1718
sI685464
I142
sI2913690
I5762
sI1930656
I1794
sI2913716
I5763
sI1078727
I308
sI2651597
I3764
sI2323919
I2838
sI2029014
I2010
sI2717143
I4299
sI2749916
I4579
sI2782689
I4830
sI2717156
I4300
sI1209829
I1398
sI1209830
I1399
sI1209831
I1400
sI2061800
I2095
sI2749929
I4580
sI1242602
I1513
sI1242603
I1514
sI1242604
I1515
sI2782702
I4831
sI2717169
I4301
sI1209843
I1401
sI1209844
I1402
sI2913781
I5764
sI2749942
I4581
sI1242615
I1516
sI1242616
I1517
sI1242617
I1518
sI2094586
I2175
sI2782715
I4832
sI1209857
I1403
sI2913794
I5765
sI2749955
I4582
sI2422277
I3133
sI1242630
I1520
sI2782728
I4833
sI3077645
I7340
sI2913807
I5766
sI1242643
I1521
sI2782741
I4834
sI2455063
I3210
sI2913820
I5767
sI2913833
I5768
sI2913846
I5769
sI1898039
I1719
sI2913859
I5770
sI1930825
I1795
sI718419
I156
sI3068857
I7305
sI1963611
I1867
sI2913885
I5771
sI2324088
I2839
sI2029183
I2011
sI2356874
I2948
sI2717325
I4302
sI2750098
I4583
sI2782871
I4835
sI2717338
I4303
sI2389660
I3046
sI1210013
I1405
sI2750111
I4584
sI1242784
I1522
sI1242785
I1523
sI1242786
I1524
sI2094755
I2176
sI2782884
I4836
sI1210026
I1406
sI2913963
I5772
sI2750124
I4585
sI2422446
I3134
sI1242799
I1526
sI2946736
I6065
sI2782897
I4837
sI2913976
I5773
sI1242812
I1527
sI2946749
I6066
sI2782910
I4838
sI1179254
I1223
sI2946762
I6067
sI1178342
I1146
sI2914002
I5775
sI2946775
I6068
sI2885961
I5571
sI2914015
I5776
sI2946788
I6069
sI2914028
I5777
sI2946801
I6070
sI1930994
I1796
sI2946814
I6071
sI1963780
I1868
sI2914054
I5778
sI2946827
I6072
sI751374
I169
sI2291471
I2720
sI2725567
I4375
sI2324257
I2840
sI2029352
I2012
sI2976050
I6455
sI1212040
I1436
sI2357043
I2949
sI2062138
I2096
sI2717507
I4304
sI2389829
I3047
sI2750280
I4586
sI2094924
I2177
sI2783053
I4839
sI1210195
I1407
sI2750293
I4587
sI1242967
I1528
sI1242968
I1529
sI2783066
I4840
sI2200549
I2408
sI2914145
I5779
sI1242981
I1530
sI2946918
I6073
sI2783079
I4841
sI2455401
I3211
sI2914158
I5780
sI2946931
I6074
sI2914171
I5781
sI2946944
I6075
sI2914184
I5782
sI2946957
I6076
sI2914197
I5783
sI391066
I18
sI2946983
I6078
sI1963949
I1869
sI2914223
I5784
sI2946996
I6079
sI2291640
I2721
sI784329
I183
sI2324426
I2841
sI2659319
I3839
sI2029521
I2013
sI2357212
I2950
sI2062307
I2097
sI2389998
I3048
sI2750462
I4588
sI2684929
I3985
sI2783235
I4842
sI2127879
I2254
sI1243150
I1531
sI2783248
I4843
sI2455570
I3212
sI1275923
I1577
sI2914327
I5785
sI2684955
I3986
sI2947100
I6080
sI1275936
I1578
sI2914340
I5786
sI1570855
I1602
sI2684968
I3987
sI2947113
I6081
sI2914353
I5787
sI2684981
I3988
sI2947126
I6082
sI2369887
I3014
sI2914366
I5788
sI2684994
I3989
sI2947139
I6083
sI2685007
I3990
sI2947152
I6084
sI424021
I32
sI2914392
I5789
sI2685020
I3991
sI2947165
I6085
sI1996904
I1938
sI2685033
I3992
sI2324595
I2842
sI2685046
I3993
sI2029690
I2014
sI2685059
I3994
sI817284
I197
sI2357381
I2951
sI2062476
I2098
sI2390167
I3049
sI2095262
I2178
sI2298907
I2757
sI2422953
I3136
sI2128048
I2255
sI2783417
I4844
sI2455739
I3213
sI2685124
I3995
sI1276105
I1579
sI2914509
I5790
sI2685137
I3996
sI2947282
I6086
sI2211534
I2448
sI2914522
I5791
sI2685150
I3997
sI2947295
I6087
sI2980064
I6555
sI2980065
I6556
sI2980066
I6557
sI2980067
I6558
sI2914535
I5792
sI2685163
I3998
sI2947308
I6088
sI2980077
I6560
sI2980078
I6561
sI2980079
I6562
sI2980080
I6563
sI2685176
I3999
sI2947321
I6089
sI2980090
I6564
sI2980091
I6565
sI2980092
I6566
sI2980093
I6567
sI2914561
I5793
sI2685189
I4000
sI2947334
I6090
sI2980104
I6568
sI2980105
I6569
sI2980106
I6570
sI456976
I46
sI2685202
I4001
sI2980118
I6571
sI2980119
I6572
sI2324764
I2843
sI2685215
I4002
sI2029859
I2015
sI2980132
I6573
sI2685228
I4003
sI2357550
I2952
sI2062645
I2099
sI850239
I211
sI2390336
I3050
sI2095431
I2179
sI2423122
I3137
sI2455908
I3214
sI1866098
I1639
sI2849145
I5301
sI2914691
I5794
sI2849158
I5302
sI2947464
I6091
sI2914704
I5795
sI2947477
I6092
sI2980246
I6575
sI2980247
I6576
sI2980248
I6577
sI2980249
I6578
sI2947490
I6093
sI2980259
I6579
sI2980260
I6580
sI2980261
I6581
sI2980262
I6582
sI2914730
I5796
sI2947503
I6094
sI2980273
I6583
sI2980274
I6584
sI2292147
I2722
sI2980287
I6586
sI2980288
I6587
sI3037553
I7129
sI489931
I60
sI2980301
I6588
sI2357719
I2953
sI2062814
I2100
sI2390505
I3051
sI2885987
I5572
sI2095600
I2180
sI883194
I225
sI2423291
I3138
sI2128386
I2256
sI2161172
I2329
sI1866267
I1640
sI2685475
I4004
sI2849327
I5303
sI2685488
I4005
sI2718261
I4305
sI2914873
I5797
sI2685501
I4006
sI2947646
I6095
sI2718274
I4306
sI2685514
I4007
sI2947659
I6096
sI2980428
I6589
sI2980429
I6590
sI2980430
I6591
sI2718287
I4307
sI2914899
I5798
sI2685527
I4008
sI2947672
I6097
sI2980442
I6593
sI2980443
I6594
sI2292316
I2723
sI2685540
I4009
sI2980456
I6596
sI2718313
I4309
sI2325102
I2844
sI2685553
I4010
sI2718326
I4310
sI2685566
I4011
sI2357888
I2954
sI2718339
I4311
sI522886
I74
sI2718352
I4312
sI2390674
I3052
sI2095769
I2181
sI2423460
I3139
sI2128555
I2257
sI916149
I239
sI3101812
I7404
sI1866436
I1641
sI2685657
I4012
sI1178340
I1144
sI1178341
I1145
sI2685670
I4013
sI1178343
I1147
sI1178344
I1148
sI1178345
I1149
sI1178353
I1150
sI1178354
I1151
sI2685683
I4014
sI1178356
I1153
sI1178357
I1154
sI1178358
I1155
sI2915068
I5799
sI1178367
I1156
sI2685696
I4015
sI1178369
I1158
sI1178370
I1159
sI1178371
I1160
sI2980612
I6600
sI2292485
I2724
sI3013383
I6972
sI3013384
I6973
sI3013385
I6974
sI3013386
I6975
sI2685709
I4016
sI1178382
I1162
sI1178383
I1163
sI1178384
I1164
sI2980625
I6602
sI2980626
I6603
sI3013397
I6976
sI3013398
I6977
sI3013399
I6978
sI2685722
I4017
sI1178395
I1165
sI1178396
I1166
sI1178397
I1167
sI2030366
I2016
sI2980639
I6604
sI3013411
I6979
sI3013412
I6980
sI2685735
I4018
sI1178409
I1168
sI1178410
I1169
sI3013425
I6981
sI1178423
I1170
sI2390843
I3053
sI3008992
I6920
sI2423629
I3140
sI2128724
I2258
sI2161510
I2330
sI2233504
I2484
sI1866605
I1642
sI949104
I253
sI1899391
I1720
sI2685839
I4019
sI1244995
I1535
sI2718612
I4313
sI1178522
I1171
sI1178523
I1172
sI2685852
I4020
sI1178525
I1174
sI1178526
I1175
sI1178527
I1176
sI2718625
I4314
sI1178536
I1177
sI2685865
I4021
sI1178538
I1179
sI1178539
I1180
sI1178540
I1181
sI2718638
I4315
sI1119390
I575
sI1178550
I1182
sI1178551
I1183
sI1178552
I1184
sI1178553
I1185
sI2980794
I6605
sI2718651
I4316
sI3013566
I6982
sI3013567
I6983
sI2325440
I2845
sI2659488
I3845
sI2685891
I4023
sI1178564
I1186
sI1178565
I1187
sI1178566
I1188
sI2030535
I2017
sI2718664
I4317
sI3013580
I6985
sI3013581
I6986
sI2685904
I4024
sI2358226
I2955
sI1178579
I1190
sI2718677
I4318
sI3013594
I6987
sI3009018
I6925
sI1178592
I1191
sI2718690
I4319
sI2391012
I3054
sI2423798
I3141
sI2888873
I5624
sI588796
I101
sI1152173
I1025
sI1866774
I1643
sI1899560
I1721
sI982059
I267
sI2686021
I4025
sI2718794
I4320
sI1178705
I1192
sI2686034
I4026
sI1178707
I1194
sI1178708
I1195
sI1178709
I1196
sI2292823
I2726
sI2659514
I3847
sI2686047
I4027
sI1178720
I1198
sI1178721
I1199
sI1178722
I1200
sI2921659
I5908
sI2718820
I4322
sI2325609
I2846
sI2686060
I4028
sI1178733
I1201
sI1178734
I1202
sI1178735
I1203
sI2030704
I2018
sI2718833
I4323
sI3013749
I6988
sI3013750
I6989
sI2686073
I4029
sI2358395
I2956
sI1178748
I1205
sI2718846
I4324
sI3013763
I6990
sI228488
I8
sI1178761
I1206
sI2718859
I4325
sI2987204
I6666
sI2423967
I3142
sI621751
I115
sI1866943
I1644
sI2194634
I2400
sI2211703
I2449
sI1899729
I1722
sI1015014
I281
sI2620657
I3541
sI2686203
I4030
sI2620670
I3542
sI2718976
I4326
sI2751749
I4589
sI2686216
I4031
sI1178889
I1208
sI1178890
I1209
sI1178891
I1210
sI1211660
I1408
sI2718989
I4327
sI1211662
I1410
sI1211663
I1411
sI1211664
I1412
sI2751762
I4590
sI2686229
I4032
sI1178902
I1211
sI1178903
I1212
sI1178904
I1213
sI2030873
I2019
sI2719002
I4328
sI1211675
I1414
sI1211676
I1415
sI1211677
I1416
sI2751775
I4591
sI2686242
I4033
sI1178916
I1214
sI1178917
I1215
sI2719015
I4329
sI1211688
I1417
sI1211689
I1418
sI1211690
I1419
sI2063659
I2101
sI2751788
I4592
sI3046704
I7211
sI3046705
I7212
sI1178930
I1216
sI2719028
I4330
sI2391350
I3055
sI1211703
I1421
sI2751801
I4593
sI3046718
I7213
sI1211716
I1422
sI2751814
I4594
sI2424136
I3143
sI1867112
I1645
sI654706
I129
sI1899898
I1723
sI1932684
I1797
sI1047969
I295
sI2620839
I3543
sI2293161
I2728
sI2686385
I4034
sI2719158
I4331
sI2751931
I4595
sI2686398
I4035
sI1179071
I1217
sI1179072
I1218
sI1179073
I1219
sI2719171
I4332
sI1211844
I1424
sI1211845
I1425
sI1211846
I1426
sI2751944
I4596
sI2686411
I4036
sI2358733
I2957
sI1179086
I1221
sI2719184
I4333
sI1211857
I1427
sI1211858
I1428
sI1211859
I1429
sI2063828
I2102
sI2751957
I4597
sI1179099
I1222
sI2719197
I4334
sI2391519
I3056
sI1211872
I1431
sI2915809
I5801
sI2751970
I4598
sI3046887
I7214
sI1211885
I1432
sI2915822
I5802
sI2751983
I4599
sI2915835
I5803
sI2915848
I5804
sI1867281
I1646
sI2915861
I5805
sI2915874
I5806
sI1900067
I1724
sI687661
I143
sI2915887
I5807
sI1932853
I1798
sI2915913
I5808
sI2293330
I2729
sI2868567
I5499
sI2326116
I2849
sI2686567
I4037
sI2031211
I2020
sI2719340
I4335
sI2752113
I4600
sI2686580
I4038
sI2358902
I2958
sI1179255
I1224
sI2719353
I4336
sI1212026
I1433
sI1212027
I1434
sI1212028
I1435
sI2063997
I2103
sI2752126
I4601
sI1179268
I1225
sI2719366
I4337
sI2391688
I3057
sI1212041
I1437
sI2915978
I5809
sI2752139
I4602
sI1212054
I1438
sI2915991
I5810
sI2752152
I4603
sI2424474
I3144
sI2916004
I5811
sI2916017
I5812
sI2916030
I5813
sI2916043
I5814
sI1900236
I1725
sI2916056
I5815
sI1933022
I1799
sI720616
I157
sI2260713
I2599
sI2916082
I5816
sI2293499
I2730
sI2326285
I2850
sI2031380
I2021
sI2686749
I4039
sI2359071
I2959
sI2719522
I4338
sI2752295
I4604
sI1179437
I1226
sI2719535
I4339
sI1212209
I1439
sI1212210
I1440
sI2752308
I4605
sI1244981
I1532
sI1244982
I1533
sI1244983
I1534
sI2096952
I2182
sI1212223
I1441
sI2916160
I5817
sI2752321
I4606
sI2424643
I3145
sI1244996
I1536
sI2916173
I5818
sI1245009
I1537
sI2916186
I5819
sI2916199
I5820
sI2978780
I6552
sI2916212
I5821
sI2916225
I5822
sI3009174
I6929
sI1933191
I1800
sI1245164
I1538
sI1965977
I1870
sI2916251
I5823
sI753571
I170
sI2293668
I2731
sI2976414
I6467
sI2326454
I2851
sI2233673
I2485
sI2031549
I2022
sI2359240
I2960
sI2064335
I2104
sI3009187
I6931
sI2719704
I4340
sI2392026
I3058
sI2752477
I4607
sI2097121
I2183
sI1212392
I1442
sI2752490
I4608
sI3041959
I7186
sI2424812
I3146
sI1245165
I1539
sI2916342
I5824
sI1245178
I1540
sI2949115
I6101
s.