(lp0
(lp1
S'Alex'
p2
aI215
aa(lp3
S'test'
p4
aI10
aa(lp5
S'joshua'
p6
aI110
aa(lp7
S'josh'
p8
aI0
aa(lp9
S'person'
p10
aI100
aa(lp11
S'aperson'
p12
aI100
aa(lp13
S'Fred'
p14
aI0
aa(lp15
S'jim'
p16
aI100
aa(lp17
S'matt'
p18
aI108
aa(lp19
S'noah'
p20
aI117
aa.